
a.out:     file format elf32-littleriscv


Disassembly of section .text:

000101b8 <abort>:
   101b8:	ed010113          	addi	sp,sp,-304
   101bc:	11312e23          	sw	s3,284(sp)
   101c0:	e2018793          	addi	a5,gp,-480 # 82198 <lock>
   101c4:	0087a783          	lw	a5,8(a5)
   101c8:	12812423          	sw	s0,296(sp)
   101cc:	12912223          	sw	s1,292(sp)
   101d0:	12112623          	sw	ra,300(sp)
   101d4:	13212023          	sw	s2,288(sp)
   101d8:	b6020493          	addi	s1,tp,-1184 # fffffb60 <__BSS_END__+0xfff7cfe8>
   101dc:	e2018413          	addi	s0,gp,-480 # 82198 <lock>
   101e0:	02978463          	beq	a5,s1,10208 <abort+0x50>
   101e4:	00100713          	li	a4,1
   101e8:	100427af          	lr.w	a5,(s0)
   101ec:	00079663          	bnez	a5,101f8 <abort+0x40>
   101f0:	1ce426af          	sc.w.aq	a3,a4,(s0)
   101f4:	fe069ae3          	bnez	a3,101e8 <abort+0x30>
   101f8:	00078663          	beqz	a5,10204 <abort+0x4c>
   101fc:	e2018513          	addi	a0,gp,-480 # 82198 <lock>
   10200:	721070ef          	jal	ra,18120 <__lll_lock_wait_private>
   10204:	00942423          	sw	s1,8(s0)
   10208:	00442783          	lw	a5,4(s0)
   1020c:	bf01a703          	lw	a4,-1040(gp) # 81f68 <stage>
   10210:	00178793          	addi	a5,a5,1
   10214:	00f42223          	sw	a5,4(s0)
   10218:	02071a63          	bnez	a4,1024c <abort+0x94>
   1021c:	00100793          	li	a5,1
   10220:	07c00613          	li	a2,124
   10224:	00000593          	li	a1,0
   10228:	00810513          	addi	a0,sp,8
   1022c:	bef1a823          	sw	a5,-1040(gp) # 81f68 <stage>
   10230:	6c1060ef          	jal	ra,170f0 <memset>
   10234:	02000793          	li	a5,32
   10238:	00000613          	li	a2,0
   1023c:	00410593          	addi	a1,sp,4
   10240:	00100513          	li	a0,1
   10244:	00f12223          	sw	a5,4(sp)
   10248:	0d90d0ef          	jal	ra,1db20 <__sigprocmask>
   1024c:	bf01a703          	lw	a4,-1040(gp) # 81f68 <stage>
   10250:	00100793          	li	a5,1
   10254:	08f71463          	bne	a4,a5,102dc <abort+0x124>
   10258:	00442783          	lw	a5,4(s0)
   1025c:	be01a823          	sw	zero,-1040(gp) # 81f68 <stage>
   10260:	fff78793          	addi	a5,a5,-1
   10264:	00f42223          	sw	a5,4(s0)
   10268:	02079663          	bnez	a5,10294 <abort+0xdc>
   1026c:	00042423          	sw	zero,8(s0)
   10270:	0f50000f          	fence	iorw,ow
   10274:	08f427af          	amoswap.w	a5,a5,(s0)
   10278:	00f75e63          	bge	a4,a5,10294 <abort+0xdc>
   1027c:	06200893          	li	a7,98
   10280:	e2018513          	addi	a0,gp,-480 # 82198 <lock>
   10284:	08100593          	li	a1,129
   10288:	00100613          	li	a2,1
   1028c:	00000693          	li	a3,0
   10290:	00000073          	ecall
   10294:	00600513          	li	a0,6
   10298:	65c0d0ef          	jal	ra,1d8f4 <raise>
   1029c:	00842783          	lw	a5,8(s0)
   102a0:	b6020913          	addi	s2,tp,-1184 # fffffb60 <__BSS_END__+0xfff7cfe8>
   102a4:	03278463          	beq	a5,s2,102cc <abort+0x114>
   102a8:	00100713          	li	a4,1
   102ac:	100427af          	lr.w	a5,(s0)
   102b0:	00079663          	bnez	a5,102bc <abort+0x104>
   102b4:	1ce426af          	sc.w.aq	a3,a4,(s0)
   102b8:	fe069ae3          	bnez	a3,102ac <abort+0xf4>
   102bc:	00078663          	beqz	a5,102c8 <abort+0x110>
   102c0:	e2018513          	addi	a0,gp,-480 # 82198 <lock>
   102c4:	65d070ef          	jal	ra,18120 <__lll_lock_wait_private>
   102c8:	01242423          	sw	s2,8(s0)
   102cc:	00442783          	lw	a5,4(s0)
   102d0:	00178793          	addi	a5,a5,1
   102d4:	00f42223          	sw	a5,4(s0)
   102d8:	00c0006f          	j	102e4 <abort+0x12c>
   102dc:	00200793          	li	a5,2
   102e0:	02f71e63          	bne	a4,a5,1031c <abort+0x164>
   102e4:	00300793          	li	a5,3
   102e8:	08c00613          	li	a2,140
   102ec:	00000593          	li	a1,0
   102f0:	08410513          	addi	a0,sp,132
   102f4:	bef1a823          	sw	a5,-1040(gp) # 81f68 <stage>
   102f8:	5f9060ef          	jal	ra,170f0 <memset>
   102fc:	08000613          	li	a2,128
   10300:	0ff00593          	li	a1,255
   10304:	08810513          	addi	a0,sp,136
   10308:	5e9060ef          	jal	ra,170f0 <memset>
   1030c:	00000613          	li	a2,0
   10310:	08410593          	addi	a1,sp,132
   10314:	00600513          	li	a0,6
   10318:	7d00d0ef          	jal	ra,1dae8 <__sigaction>
   1031c:	bf01a703          	lw	a4,-1040(gp) # 81f68 <stage>
   10320:	00300793          	li	a5,3
   10324:	00f71a63          	bne	a4,a5,10338 <abort+0x180>
   10328:	00400793          	li	a5,4
   1032c:	00600513          	li	a0,6
   10330:	bef1a823          	sw	a5,-1040(gp) # 81f68 <stage>
   10334:	5c00d0ef          	jal	ra,1d8f4 <raise>
   10338:	bf01a783          	lw	a5,-1040(gp) # 81f68 <stage>
   1033c:	00400713          	li	a4,4
   10340:	00e79863          	bne	a5,a4,10350 <abort+0x198>
   10344:	00500793          	li	a5,5
   10348:	bef1a823          	sw	a5,-1040(gp) # 81f68 <stage>
   1034c:	00100073          	ebreak
   10350:	00500713          	li	a4,5
   10354:	00e79a63          	bne	a5,a4,10368 <abort+0x1b0>
   10358:	00600793          	li	a5,6
   1035c:	07f00513          	li	a0,127
   10360:	bef1a823          	sw	a5,-1040(gp) # 81f68 <stage>
   10364:	3ac070ef          	jal	ra,17710 <_exit>
   10368:	00100073          	ebreak

0001036c <_dl_start>:
   1036c:	ff010113          	addi	sp,sp,-16
   10370:	00112623          	sw	ra,12(sp)
   10374:	e45ff0ef          	jal	ra,101b8 <abort>

00010378 <fini>:
   10378:	ff010113          	addi	sp,sp,-16
   1037c:	00812423          	sw	s0,8(sp)
   10380:	5f818413          	addi	s0,gp,1528 # 82970 <last_result>
   10384:	00912223          	sw	s1,4(sp)
   10388:	01042483          	lw	s1,16(s0)
   1038c:	00112623          	sw	ra,12(sp)
   10390:	00048c63          	beqz	s1,103a8 <fini+0x30>
   10394:	000675b7          	lui	a1,0x67
   10398:	41c58593          	addi	a1,a1,1052 # 6741c <_dl_out_of_memory>
   1039c:	00048513          	mv	a0,s1
   103a0:	6891d0ef          	jal	ra,2e228 <strcmp>
   103a4:	00051c63          	bnez	a0,103bc <fini+0x44>
   103a8:	00c12083          	lw	ra,12(sp)
   103ac:	00812403          	lw	s0,8(sp)
   103b0:	00412483          	lw	s1,4(sp)
   103b4:	01010113          	addi	sp,sp,16
   103b8:	00008067          	ret
   103bc:	00048513          	mv	a0,s1
   103c0:	07d050ef          	jal	ra,15c3c <__free>
   103c4:	00042823          	sw	zero,16(s0)
   103c8:	fe1ff06f          	j	103a8 <fini+0x30>

000103cc <_start>:
   103cc:	fe010113          	addi	sp,sp,-32
   103d0:	00112e23          	sw	ra,28(sp)
   103d4:	00812c23          	sw	s0,24(sp)
   103d8:	02010413          	addi	s0,sp,32
   103dc:	2d4000ef          	jal	ra,106b0 <main>
   103e0:	fea42623          	sw	a0,-20(s0)
   103e4:	fec42503          	lw	a0,-20(s0)
   103e8:	5d4000ef          	jal	ra,109bc <exit>

000103ec <myabs>:
   103ec:	fe010113          	addi	sp,sp,-32
   103f0:	00812e23          	sw	s0,28(sp)
   103f4:	02010413          	addi	s0,sp,32
   103f8:	fea42623          	sw	a0,-20(s0)
   103fc:	fec42783          	lw	a5,-20(s0)
   10400:	0007d863          	bgez	a5,10410 <myabs+0x24>
   10404:	fec42783          	lw	a5,-20(s0)
   10408:	40f007b3          	neg	a5,a5
   1040c:	0080006f          	j	10414 <myabs+0x28>
   10410:	fec42783          	lw	a5,-20(s0)
   10414:	00078513          	mv	a0,a5
   10418:	01c12403          	lw	s0,28(sp)
   1041c:	02010113          	addi	sp,sp,32
   10420:	00008067          	ret

00010424 <backtrack>:
   10424:	e4010113          	addi	sp,sp,-448
   10428:	1a112e23          	sw	ra,444(sp)
   1042c:	1a812c23          	sw	s0,440(sp)
   10430:	1c010413          	addi	s0,sp,448
   10434:	e4a42623          	sw	a0,-436(s0)
   10438:	e4b42423          	sw	a1,-440(s0)
   1043c:	e4c42223          	sw	a2,-444(s0)
   10440:	e4442603          	lw	a2,-444(s0)
   10444:	e4842583          	lw	a1,-440(s0)
   10448:	e4c42503          	lw	a0,-436(s0)
   1044c:	0e8000ef          	jal	ra,10534 <is_a_solution>
   10450:	00050793          	mv	a5,a0
   10454:	00078c63          	beqz	a5,1046c <backtrack+0x48>
   10458:	e4442603          	lw	a2,-444(s0)
   1045c:	e4842583          	lw	a1,-440(s0)
   10460:	e4c42503          	lw	a0,-436(s0)
   10464:	09c000ef          	jal	ra,10500 <process_solution>
   10468:	0840006f          	j	104ec <backtrack+0xc8>
   1046c:	e4842783          	lw	a5,-440(s0)
   10470:	00178793          	addi	a5,a5,1
   10474:	e4f42423          	sw	a5,-440(s0)
   10478:	e5840713          	addi	a4,s0,-424
   1047c:	e5c40793          	addi	a5,s0,-420
   10480:	00078693          	mv	a3,a5
   10484:	e4442603          	lw	a2,-444(s0)
   10488:	e4842583          	lw	a1,-440(s0)
   1048c:	e4c42503          	lw	a0,-436(s0)
   10490:	0e0000ef          	jal	ra,10570 <construct_candidates>
   10494:	fe042623          	sw	zero,-20(s0)
   10498:	0480006f          	j	104e0 <backtrack+0xbc>
   1049c:	e4842783          	lw	a5,-440(s0)
   104a0:	00279793          	slli	a5,a5,0x2
   104a4:	e4c42703          	lw	a4,-436(s0)
   104a8:	00f70733          	add	a4,a4,a5
   104ac:	fec42783          	lw	a5,-20(s0)
   104b0:	00279793          	slli	a5,a5,0x2
   104b4:	ff040693          	addi	a3,s0,-16
   104b8:	00f687b3          	add	a5,a3,a5
   104bc:	e6c7a783          	lw	a5,-404(a5)
   104c0:	00f72023          	sw	a5,0(a4)
   104c4:	e4442603          	lw	a2,-444(s0)
   104c8:	e4842583          	lw	a1,-440(s0)
   104cc:	e4c42503          	lw	a0,-436(s0)
   104d0:	f55ff0ef          	jal	ra,10424 <backtrack>
   104d4:	fec42783          	lw	a5,-20(s0)
   104d8:	00178793          	addi	a5,a5,1
   104dc:	fef42623          	sw	a5,-20(s0)
   104e0:	e5842783          	lw	a5,-424(s0)
   104e4:	fec42703          	lw	a4,-20(s0)
   104e8:	faf74ae3          	blt	a4,a5,1049c <backtrack+0x78>
   104ec:	00000013          	nop
   104f0:	1bc12083          	lw	ra,444(sp)
   104f4:	1b812403          	lw	s0,440(sp)
   104f8:	1c010113          	addi	sp,sp,448
   104fc:	00008067          	ret

00010500 <process_solution>:
   10500:	fe010113          	addi	sp,sp,-32
   10504:	00812e23          	sw	s0,28(sp)
   10508:	02010413          	addi	s0,sp,32
   1050c:	fea42623          	sw	a0,-20(s0)
   10510:	feb42423          	sw	a1,-24(s0)
   10514:	be81a783          	lw	a5,-1048(gp) # 81f60 <solution_count>
   10518:	00178713          	addi	a4,a5,1
   1051c:	bee1a423          	sw	a4,-1048(gp) # 81f60 <solution_count>
   10520:	00000013          	nop
   10524:	00078513          	mv	a0,a5
   10528:	01c12403          	lw	s0,28(sp)
   1052c:	02010113          	addi	sp,sp,32
   10530:	00008067          	ret

00010534 <is_a_solution>:
   10534:	fe010113          	addi	sp,sp,-32
   10538:	00812e23          	sw	s0,28(sp)
   1053c:	02010413          	addi	s0,sp,32
   10540:	fea42623          	sw	a0,-20(s0)
   10544:	feb42423          	sw	a1,-24(s0)
   10548:	fec42223          	sw	a2,-28(s0)
   1054c:	fe842703          	lw	a4,-24(s0)
   10550:	fe442783          	lw	a5,-28(s0)
   10554:	40f707b3          	sub	a5,a4,a5
   10558:	0017b793          	seqz	a5,a5
   1055c:	0ff7f793          	andi	a5,a5,255
   10560:	00078513          	mv	a0,a5
   10564:	01c12403          	lw	s0,28(sp)
   10568:	02010113          	addi	sp,sp,32
   1056c:	00008067          	ret

00010570 <construct_candidates>:
   10570:	fc010113          	addi	sp,sp,-64
   10574:	02112e23          	sw	ra,60(sp)
   10578:	02812c23          	sw	s0,56(sp)
   1057c:	02912a23          	sw	s1,52(sp)
   10580:	04010413          	addi	s0,sp,64
   10584:	fca42e23          	sw	a0,-36(s0)
   10588:	fcb42c23          	sw	a1,-40(s0)
   1058c:	fcc42a23          	sw	a2,-44(s0)
   10590:	fcd42823          	sw	a3,-48(s0)
   10594:	fce42623          	sw	a4,-52(s0)
   10598:	fcc42783          	lw	a5,-52(s0)
   1059c:	0007a023          	sw	zero,0(a5)
   105a0:	00100793          	li	a5,1
   105a4:	fef42623          	sw	a5,-20(s0)
   105a8:	0e00006f          	j	10688 <construct_candidates+0x118>
   105ac:	00100793          	li	a5,1
   105b0:	fef42223          	sw	a5,-28(s0)
   105b4:	00100793          	li	a5,1
   105b8:	fef42423          	sw	a5,-24(s0)
   105bc:	0780006f          	j	10634 <construct_candidates+0xc4>
   105c0:	fd842703          	lw	a4,-40(s0)
   105c4:	fe842783          	lw	a5,-24(s0)
   105c8:	40f707b3          	sub	a5,a4,a5
   105cc:	00078513          	mv	a0,a5
   105d0:	e1dff0ef          	jal	ra,103ec <myabs>
   105d4:	00050493          	mv	s1,a0
   105d8:	fe842783          	lw	a5,-24(s0)
   105dc:	00279793          	slli	a5,a5,0x2
   105e0:	fdc42703          	lw	a4,-36(s0)
   105e4:	00f707b3          	add	a5,a4,a5
   105e8:	0007a783          	lw	a5,0(a5)
   105ec:	fec42703          	lw	a4,-20(s0)
   105f0:	40f707b3          	sub	a5,a4,a5
   105f4:	00078513          	mv	a0,a5
   105f8:	df5ff0ef          	jal	ra,103ec <myabs>
   105fc:	00050793          	mv	a5,a0
   10600:	00f49463          	bne	s1,a5,10608 <construct_candidates+0x98>
   10604:	fe042223          	sw	zero,-28(s0)
   10608:	fe842783          	lw	a5,-24(s0)
   1060c:	00279793          	slli	a5,a5,0x2
   10610:	fdc42703          	lw	a4,-36(s0)
   10614:	00f707b3          	add	a5,a4,a5
   10618:	0007a783          	lw	a5,0(a5)
   1061c:	fec42703          	lw	a4,-20(s0)
   10620:	00f71463          	bne	a4,a5,10628 <construct_candidates+0xb8>
   10624:	fe042223          	sw	zero,-28(s0)
   10628:	fe842783          	lw	a5,-24(s0)
   1062c:	00178793          	addi	a5,a5,1
   10630:	fef42423          	sw	a5,-24(s0)
   10634:	fe842703          	lw	a4,-24(s0)
   10638:	fd842783          	lw	a5,-40(s0)
   1063c:	f8f742e3          	blt	a4,a5,105c0 <construct_candidates+0x50>
   10640:	fe442703          	lw	a4,-28(s0)
   10644:	00100793          	li	a5,1
   10648:	02f71a63          	bne	a4,a5,1067c <construct_candidates+0x10c>
   1064c:	fcc42783          	lw	a5,-52(s0)
   10650:	0007a783          	lw	a5,0(a5)
   10654:	00279793          	slli	a5,a5,0x2
   10658:	fd042703          	lw	a4,-48(s0)
   1065c:	00f707b3          	add	a5,a4,a5
   10660:	fec42703          	lw	a4,-20(s0)
   10664:	00e7a023          	sw	a4,0(a5)
   10668:	fcc42783          	lw	a5,-52(s0)
   1066c:	0007a783          	lw	a5,0(a5)
   10670:	00178713          	addi	a4,a5,1
   10674:	fcc42783          	lw	a5,-52(s0)
   10678:	00e7a023          	sw	a4,0(a5)
   1067c:	fec42783          	lw	a5,-20(s0)
   10680:	00178793          	addi	a5,a5,1
   10684:	fef42623          	sw	a5,-20(s0)
   10688:	fec42703          	lw	a4,-20(s0)
   1068c:	fd442783          	lw	a5,-44(s0)
   10690:	f0e7dee3          	bge	a5,a4,105ac <construct_candidates+0x3c>
   10694:	00000013          	nop
   10698:	00078513          	mv	a0,a5
   1069c:	03c12083          	lw	ra,60(sp)
   106a0:	03812403          	lw	s0,56(sp)
   106a4:	03412483          	lw	s1,52(sp)
   106a8:	04010113          	addi	sp,sp,64
   106ac:	00008067          	ret

000106b0 <main>:
   106b0:	e3010113          	addi	sp,sp,-464
   106b4:	1c112623          	sw	ra,460(sp)
   106b8:	1c812423          	sw	s0,456(sp)
   106bc:	1d010413          	addi	s0,sp,464
   106c0:	000637b7          	lui	a5,0x63
   106c4:	52078793          	addi	a5,a5,1312 # 63520 <free_mem+0x108>
   106c8:	0007a883          	lw	a7,0(a5)
   106cc:	0047a803          	lw	a6,4(a5)
   106d0:	0087a503          	lw	a0,8(a5)
   106d4:	00c7a583          	lw	a1,12(a5)
   106d8:	0107a603          	lw	a2,16(a5)
   106dc:	0147a683          	lw	a3,20(a5)
   106e0:	0187a703          	lw	a4,24(a5)
   106e4:	01c7a783          	lw	a5,28(a5)
   106e8:	e3142e23          	sw	a7,-452(s0)
   106ec:	e5042023          	sw	a6,-448(s0)
   106f0:	e4a42223          	sw	a0,-444(s0)
   106f4:	e4b42423          	sw	a1,-440(s0)
   106f8:	e4c42623          	sw	a2,-436(s0)
   106fc:	e4d42823          	sw	a3,-432(s0)
   10700:	e4e42a23          	sw	a4,-428(s0)
   10704:	e4f42c23          	sw	a5,-424(s0)
   10708:	00100793          	li	a5,1
   1070c:	fef42623          	sw	a5,-20(s0)
   10710:	0500006f          	j	10760 <main+0xb0>
   10714:	be01a423          	sw	zero,-1048(gp) # 81f60 <solution_count>
   10718:	fec42703          	lw	a4,-20(s0)
   1071c:	e5c40793          	addi	a5,s0,-420
   10720:	00070613          	mv	a2,a4
   10724:	00000593          	li	a1,0
   10728:	00078513          	mv	a0,a5
   1072c:	cf9ff0ef          	jal	ra,10424 <backtrack>
   10730:	fec42783          	lw	a5,-20(s0)
   10734:	fff78793          	addi	a5,a5,-1
   10738:	00279793          	slli	a5,a5,0x2
   1073c:	ff040713          	addi	a4,s0,-16
   10740:	00f707b3          	add	a5,a4,a5
   10744:	e4c7a703          	lw	a4,-436(a5)
   10748:	be81a783          	lw	a5,-1048(gp) # 81f60 <solution_count>
   1074c:	00f70463          	beq	a4,a5,10754 <main+0xa4>
   10750:	a69ff0ef          	jal	ra,101b8 <abort>
   10754:	fec42783          	lw	a5,-20(s0)
   10758:	00178793          	addi	a5,a5,1
   1075c:	fef42623          	sw	a5,-20(s0)
   10760:	fec42703          	lw	a4,-20(s0)
   10764:	00800793          	li	a5,8
   10768:	fae7d6e3          	bge	a5,a4,10714 <main+0x64>
   1076c:	00000793          	li	a5,0
   10770:	00078513          	mv	a0,a5
   10774:	1cc12083          	lw	ra,460(sp)
   10778:	1c812403          	lw	s0,456(sp)
   1077c:	1d010113          	addi	sp,sp,464
   10780:	00008067          	ret

00010784 <__run_exit_handlers>:
   10784:	fb010113          	addi	sp,sp,-80
   10788:	03512a23          	sw	s5,52(sp)
   1078c:	03612823          	sw	s6,48(sp)
   10790:	04112623          	sw	ra,76(sp)
   10794:	04812423          	sw	s0,72(sp)
   10798:	04912223          	sw	s1,68(sp)
   1079c:	05212023          	sw	s2,64(sp)
   107a0:	03312e23          	sw	s3,60(sp)
   107a4:	03412c23          	sw	s4,56(sp)
   107a8:	03712623          	sw	s7,44(sp)
   107ac:	03812423          	sw	s8,40(sp)
   107b0:	03912223          	sw	s9,36(sp)
   107b4:	03a12023          	sw	s10,32(sp)
   107b8:	01b12e23          	sw	s11,28(sp)
   107bc:	00000793          	li	a5,0
   107c0:	00c12623          	sw	a2,12(sp)
   107c4:	00050a93          	mv	s5,a0
   107c8:	00058b13          	mv	s6,a1
   107cc:	00078463          	beqz	a5,107d4 <__run_exit_handlers+0x50>
   107d0:	1c069263          	bnez	a3,10994 <__run_exit_handlers+0x210>
   107d4:	00100d13          	li	s10,1
   107d8:	00000993          	li	s3,0
   107dc:	c0818713          	addi	a4,gp,-1016 # 81f80 <__exit_funcs_lock>
   107e0:	100727af          	lr.w	a5,(a4)
   107e4:	00079663          	bnez	a5,107f0 <__run_exit_handlers+0x6c>
   107e8:	1da726af          	sc.w.aq	a3,s10,(a4)
   107ec:	fe069ae3          	bnez	a3,107e0 <__run_exit_handlers+0x5c>
   107f0:	18079c63          	bnez	a5,10988 <__run_exit_handlers+0x204>
   107f4:	000b2c83          	lw	s9,0(s6)
   107f8:	080c8263          	beqz	s9,1087c <__run_exit_handlers+0xf8>
   107fc:	00300a13          	li	s4,3
   10800:	00400913          	li	s2,4
   10804:	00200493          	li	s1,2
   10808:	004ca783          	lw	a5,4(s9)
   1080c:	12078c63          	beqz	a5,10944 <__run_exit_handlers+0x1c0>
   10810:	c001ad83          	lw	s11,-1024(gp) # 81f78 <__new_exitfn_called>
   10814:	c041ab83          	lw	s7,-1020(gp) # 81f7c <__new_exitfn_called+0x4>
   10818:	fff78713          	addi	a4,a5,-1
   1081c:	00eca223          	sw	a4,4(s9)
   10820:	c0818693          	addi	a3,gp,-1016 # 81f80 <__exit_funcs_lock>
   10824:	00098713          	mv	a4,s3
   10828:	0f50000f          	fence	iorw,ow
   1082c:	08e6a72f          	amoswap.w	a4,a4,(a3)
   10830:	0eed4c63          	blt	s10,a4,10928 <__run_exit_handlers+0x1a4>
   10834:	00479793          	slli	a5,a5,0x4
   10838:	00fc87b3          	add	a5,s9,a5
   1083c:	ff87a703          	lw	a4,-8(a5)
   10840:	0d470e63          	beq	a4,s4,1091c <__run_exit_handlers+0x198>
   10844:	0d270063          	beq	a4,s2,10904 <__run_exit_handlers+0x180>
   10848:	08970463          	beq	a4,s1,108d0 <__run_exit_handlers+0x14c>
   1084c:	c0818713          	addi	a4,gp,-1016 # 81f80 <__exit_funcs_lock>
   10850:	100727af          	lr.w	a5,(a4)
   10854:	00079663          	bnez	a5,10860 <__run_exit_handlers+0xdc>
   10858:	1da726af          	sc.w.aq	a3,s10,(a4)
   1085c:	fe069ae3          	bnez	a3,10850 <__run_exit_handlers+0xcc>
   10860:	08079c63          	bnez	a5,108f8 <__run_exit_handlers+0x174>
   10864:	c001a783          	lw	a5,-1024(gp) # 81f78 <__new_exitfn_called>
   10868:	01b79663          	bne	a5,s11,10874 <__run_exit_handlers+0xf0>
   1086c:	c041a783          	lw	a5,-1020(gp) # 81f7c <__new_exitfn_called+0x4>
   10870:	f9778ce3          	beq	a5,s7,10808 <__run_exit_handlers+0x84>
   10874:	000b2c83          	lw	s9,0(s6)
   10878:	f80c94e3          	bnez	s9,10800 <__run_exit_handlers+0x7c>
   1087c:	00100713          	li	a4,1
   10880:	bee18c23          	sb	a4,-1032(gp) # 81f70 <__exit_funcs_done>
   10884:	c0818693          	addi	a3,gp,-1016 # 81f80 <__exit_funcs_lock>
   10888:	00000793          	li	a5,0
   1088c:	0f50000f          	fence	iorw,ow
   10890:	08f6a7af          	amoswap.w	a5,a5,(a3)
   10894:	10f74663          	blt	a4,a5,109a0 <__run_exit_handlers+0x21c>
   10898:	00c12783          	lw	a5,12(sp)
   1089c:	02078663          	beqz	a5,108c8 <__run_exit_handlers+0x144>
   108a0:	0007c437          	lui	s0,0x7c
   108a4:	0007c4b7          	lui	s1,0x7c
   108a8:	f9c40793          	addi	a5,s0,-100 # 7bf9c <__elf_set___libc_atexit_element__IO_cleanup__>
   108ac:	fa048493          	addi	s1,s1,-96 # 7bfa0 <__stop___libc_atexit>
   108b0:	0097fc63          	bgeu	a5,s1,108c8 <__run_exit_handlers+0x144>
   108b4:	f9c40413          	addi	s0,s0,-100
   108b8:	00042783          	lw	a5,0(s0)
   108bc:	00440413          	addi	s0,s0,4
   108c0:	000780e7          	jalr	a5
   108c4:	fe946ae3          	bltu	s0,s1,108b8 <__run_exit_handlers+0x134>
   108c8:	000a8513          	mv	a0,s5
   108cc:	645060ef          	jal	ra,17710 <_exit>
   108d0:	ffc7a703          	lw	a4,-4(a5)
   108d4:	0007a583          	lw	a1,0(a5)
   108d8:	000a8513          	mv	a0,s5
   108dc:	000700e7          	jalr	a4
   108e0:	c0818713          	addi	a4,gp,-1016 # 81f80 <__exit_funcs_lock>
   108e4:	100727af          	lr.w	a5,(a4)
   108e8:	00079663          	bnez	a5,108f4 <__run_exit_handlers+0x170>
   108ec:	1da726af          	sc.w.aq	a3,s10,(a4)
   108f0:	fe069ae3          	bnez	a3,108e4 <__run_exit_handlers+0x160>
   108f4:	f60788e3          	beqz	a5,10864 <__run_exit_handlers+0xe0>
   108f8:	c0818513          	addi	a0,gp,-1016 # 81f80 <__exit_funcs_lock>
   108fc:	025070ef          	jal	ra,18120 <__lll_lock_wait_private>
   10900:	f65ff06f          	j	10864 <__run_exit_handlers+0xe0>
   10904:	ffc7a703          	lw	a4,-4(a5)
   10908:	0007a503          	lw	a0,0(a5)
   1090c:	fe07ac23          	sw	zero,-8(a5)
   10910:	000a8593          	mv	a1,s5
   10914:	000700e7          	jalr	a4
   10918:	f35ff06f          	j	1084c <__run_exit_handlers+0xc8>
   1091c:	ffc7a783          	lw	a5,-4(a5)
   10920:	000780e7          	jalr	a5
   10924:	f29ff06f          	j	1084c <__run_exit_handlers+0xc8>
   10928:	06200893          	li	a7,98
   1092c:	c0818513          	addi	a0,gp,-1016 # 81f80 <__exit_funcs_lock>
   10930:	08100593          	li	a1,129
   10934:	00100613          	li	a2,1
   10938:	00000693          	li	a3,0
   1093c:	00000073          	ecall
   10940:	ef5ff06f          	j	10834 <__run_exit_handlers+0xb0>
   10944:	000ca783          	lw	a5,0(s9)
   10948:	00fb2023          	sw	a5,0(s6)
   1094c:	00078663          	beqz	a5,10958 <__run_exit_handlers+0x1d4>
   10950:	000c8513          	mv	a0,s9
   10954:	2e8050ef          	jal	ra,15c3c <__free>
   10958:	00098793          	mv	a5,s3
   1095c:	c0818713          	addi	a4,gp,-1016 # 81f80 <__exit_funcs_lock>
   10960:	0f50000f          	fence	iorw,ow
   10964:	08f727af          	amoswap.w	a5,a5,(a4)
   10968:	e6fd5ae3          	bge	s10,a5,107dc <__run_exit_handlers+0x58>
   1096c:	06200893          	li	a7,98
   10970:	c0818513          	addi	a0,gp,-1016 # 81f80 <__exit_funcs_lock>
   10974:	08100593          	li	a1,129
   10978:	00100613          	li	a2,1
   1097c:	00000693          	li	a3,0
   10980:	00000073          	ecall
   10984:	e59ff06f          	j	107dc <__run_exit_handlers+0x58>
   10988:	c0818513          	addi	a0,gp,-1016 # 81f80 <__exit_funcs_lock>
   1098c:	794070ef          	jal	ra,18120 <__lll_lock_wait_private>
   10990:	e65ff06f          	j	107f4 <__run_exit_handlers+0x70>
   10994:	00000097          	auipc	ra,0x0
   10998:	000000e7          	jalr	zero # 0 <_nl_current_LC_CTYPE>
   1099c:	e39ff06f          	j	107d4 <__run_exit_handlers+0x50>
   109a0:	06200893          	li	a7,98
   109a4:	c0818513          	addi	a0,gp,-1016 # 81f80 <__exit_funcs_lock>
   109a8:	08100593          	li	a1,129
   109ac:	00100613          	li	a2,1
   109b0:	00000693          	li	a3,0
   109b4:	00000073          	ecall
   109b8:	ee1ff06f          	j	10898 <__run_exit_handlers+0x114>

000109bc <exit>:
   109bc:	ff010113          	addi	sp,sp,-16
   109c0:	00100693          	li	a3,1
   109c4:	00100613          	li	a2,1
   109c8:	ae818593          	addi	a1,gp,-1304 # 81e60 <__exit_funcs>
   109cc:	00112623          	sw	ra,12(sp)
   109d0:	db5ff0ef          	jal	ra,10784 <__run_exit_handlers>

000109d4 <__new_exitfn>:
   109d4:	bf81c783          	lbu	a5,-1032(gp) # 81f70 <__exit_funcs_done>
   109d8:	12079463          	bnez	a5,10b00 <__new_exitfn+0x12c>
   109dc:	ff010113          	addi	sp,sp,-16
   109e0:	00912223          	sw	s1,4(sp)
   109e4:	00052483          	lw	s1,0(a0)
   109e8:	00812423          	sw	s0,8(sp)
   109ec:	00112623          	sw	ra,12(sp)
   109f0:	00050413          	mv	s0,a0
   109f4:	0e048663          	beqz	s1,10ae0 <__new_exitfn+0x10c>
   109f8:	00048593          	mv	a1,s1
   109fc:	00000813          	li	a6,0
   10a00:	0045a703          	lw	a4,4(a1)
   10a04:	00471793          	slli	a5,a4,0x4
   10a08:	00f587b3          	add	a5,a1,a5
   10a0c:	00070e63          	beqz	a4,10a28 <__new_exitfn+0x54>
   10a10:	ff87a683          	lw	a3,-8(a5)
   10a14:	fff70613          	addi	a2,a4,-1
   10a18:	ff078793          	addi	a5,a5,-16
   10a1c:	02069263          	bnez	a3,10a40 <__new_exitfn+0x6c>
   10a20:	00060713          	mv	a4,a2
   10a24:	fe0716e3          	bnez	a4,10a10 <__new_exitfn+0x3c>
   10a28:	0005a783          	lw	a5,0(a1)
   10a2c:	0005a223          	sw	zero,4(a1)
   10a30:	00058813          	mv	a6,a1
   10a34:	08078263          	beqz	a5,10ab8 <__new_exitfn+0xe4>
   10a38:	00078593          	mv	a1,a5
   10a3c:	fc5ff06f          	j	10a00 <__new_exitfn+0x2c>
   10a40:	02000793          	li	a5,32
   10a44:	04f70863          	beq	a4,a5,10a94 <__new_exitfn+0xc0>
   10a48:	00471513          	slli	a0,a4,0x4
   10a4c:	00850513          	addi	a0,a0,8
   10a50:	00170713          	addi	a4,a4,1
   10a54:	00a58533          	add	a0,a1,a0
   10a58:	00e5a223          	sw	a4,4(a1)
   10a5c:	c001a783          	lw	a5,-1024(gp) # 81f78 <__new_exitfn_called>
   10a60:	c041a603          	lw	a2,-1020(gp) # 81f7c <__new_exitfn_called+0x4>
   10a64:	00c12083          	lw	ra,12(sp)
   10a68:	00178693          	addi	a3,a5,1
   10a6c:	00812403          	lw	s0,8(sp)
   10a70:	00f6b7b3          	sltu	a5,a3,a5
   10a74:	00100593          	li	a1,1
   10a78:	00b52023          	sw	a1,0(a0)
   10a7c:	00c787b3          	add	a5,a5,a2
   10a80:	c0d1a023          	sw	a3,-1024(gp) # 81f78 <__new_exitfn_called>
   10a84:	c0f1a223          	sw	a5,-1020(gp) # 81f7c <__new_exitfn_called+0x4>
   10a88:	00412483          	lw	s1,4(sp)
   10a8c:	01010113          	addi	sp,sp,16
   10a90:	00008067          	ret
   10a94:	00080593          	mv	a1,a6
   10a98:	02081063          	bnez	a6,10ab8 <__new_exitfn+0xe4>
   10a9c:	20800593          	li	a1,520
   10aa0:	00100513          	li	a0,1
   10aa4:	0b5050ef          	jal	ra,16358 <__calloc>
   10aa8:	00050593          	mv	a1,a0
   10aac:	00050e63          	beqz	a0,10ac8 <__new_exitfn+0xf4>
   10ab0:	00952023          	sw	s1,0(a0)
   10ab4:	00a42023          	sw	a0,0(s0)
   10ab8:	00100793          	li	a5,1
   10abc:	00858513          	addi	a0,a1,8
   10ac0:	00f5a223          	sw	a5,4(a1)
   10ac4:	f99ff06f          	j	10a5c <__new_exitfn+0x88>
   10ac8:	00c12083          	lw	ra,12(sp)
   10acc:	00812403          	lw	s0,8(sp)
   10ad0:	00412483          	lw	s1,4(sp)
   10ad4:	00000513          	li	a0,0
   10ad8:	01010113          	addi	sp,sp,16
   10adc:	00008067          	ret
   10ae0:	000636b7          	lui	a3,0x63
   10ae4:	000635b7          	lui	a1,0x63
   10ae8:	00063537          	lui	a0,0x63
   10aec:	56c68693          	addi	a3,a3,1388 # 6356c <__PRETTY_FUNCTION__.0>
   10af0:	07000613          	li	a2,112
   10af4:	54058593          	addi	a1,a1,1344 # 63540 <free_mem+0x128>
   10af8:	55050513          	addi	a0,a0,1360 # 63550 <free_mem+0x138>
   10afc:	121080ef          	jal	ra,1941c <__assert_fail>
   10b00:	00000513          	li	a0,0
   10b04:	00008067          	ret

00010b08 <__internal_atexit>:
   10b08:	fd010113          	addi	sp,sp,-48
   10b0c:	02112623          	sw	ra,44(sp)
   10b10:	02812423          	sw	s0,40(sp)
   10b14:	02912223          	sw	s1,36(sp)
   10b18:	03212023          	sw	s2,32(sp)
   10b1c:	01312e23          	sw	s3,28(sp)
   10b20:	0c050863          	beqz	a0,10bf0 <__internal_atexit+0xe8>
   10b24:	00060913          	mv	s2,a2
   10b28:	00050493          	mv	s1,a0
   10b2c:	00058993          	mv	s3,a1
   10b30:	00100713          	li	a4,1
   10b34:	c0818613          	addi	a2,gp,-1016 # 81f80 <__exit_funcs_lock>
   10b38:	100627af          	lr.w	a5,(a2)
   10b3c:	00079663          	bnez	a5,10b48 <__internal_atexit+0x40>
   10b40:	1ce625af          	sc.w.aq	a1,a4,(a2)
   10b44:	fe059ae3          	bnez	a1,10b38 <__internal_atexit+0x30>
   10b48:	06079063          	bnez	a5,10ba8 <__internal_atexit+0xa0>
   10b4c:	00068513          	mv	a0,a3
   10b50:	e85ff0ef          	jal	ra,109d4 <__new_exitfn>
   10b54:	06050463          	beqz	a0,10bbc <__internal_atexit+0xb4>
   10b58:	00400793          	li	a5,4
   10b5c:	00f52023          	sw	a5,0(a0)
   10b60:	00952223          	sw	s1,4(a0)
   10b64:	01352423          	sw	s3,8(a0)
   10b68:	01252623          	sw	s2,12(a0)
   10b6c:	00000793          	li	a5,0
   10b70:	c0818713          	addi	a4,gp,-1016 # 81f80 <__exit_funcs_lock>
   10b74:	0f50000f          	fence	iorw,ow
   10b78:	08f727af          	amoswap.w	a5,a5,(a4)
   10b7c:	00100693          	li	a3,1
   10b80:	00000713          	li	a4,0
   10b84:	04f6c863          	blt	a3,a5,10bd4 <__internal_atexit+0xcc>
   10b88:	02c12083          	lw	ra,44(sp)
   10b8c:	02812403          	lw	s0,40(sp)
   10b90:	02412483          	lw	s1,36(sp)
   10b94:	02012903          	lw	s2,32(sp)
   10b98:	01c12983          	lw	s3,28(sp)
   10b9c:	00070513          	mv	a0,a4
   10ba0:	03010113          	addi	sp,sp,48
   10ba4:	00008067          	ret
   10ba8:	c0818513          	addi	a0,gp,-1016 # 81f80 <__exit_funcs_lock>
   10bac:	00d12623          	sw	a3,12(sp)
   10bb0:	570070ef          	jal	ra,18120 <__lll_lock_wait_private>
   10bb4:	00c12683          	lw	a3,12(sp)
   10bb8:	f95ff06f          	j	10b4c <__internal_atexit+0x44>
   10bbc:	c0818793          	addi	a5,gp,-1016 # 81f80 <__exit_funcs_lock>
   10bc0:	0f50000f          	fence	iorw,ow
   10bc4:	08a7a52f          	amoswap.w	a0,a0,(a5)
   10bc8:	00100793          	li	a5,1
   10bcc:	fff00713          	li	a4,-1
   10bd0:	faa7dce3          	bge	a5,a0,10b88 <__internal_atexit+0x80>
   10bd4:	06200893          	li	a7,98
   10bd8:	c0818513          	addi	a0,gp,-1016 # 81f80 <__exit_funcs_lock>
   10bdc:	08100593          	li	a1,129
   10be0:	00100613          	li	a2,1
   10be4:	00000693          	li	a3,0
   10be8:	00000073          	ecall
   10bec:	f9dff06f          	j	10b88 <__internal_atexit+0x80>
   10bf0:	000636b7          	lui	a3,0x63
   10bf4:	000635b7          	lui	a1,0x63
   10bf8:	00063537          	lui	a0,0x63
   10bfc:	57c68693          	addi	a3,a3,1404 # 6357c <__PRETTY_FUNCTION__.1>
   10c00:	02900613          	li	a2,41
   10c04:	54058593          	addi	a1,a1,1344 # 63540 <free_mem+0x128>
   10c08:	55c50513          	addi	a0,a0,1372 # 6355c <free_mem+0x144>
   10c0c:	011080ef          	jal	ra,1941c <__assert_fail>

00010c10 <__cxa_atexit>:
   10c10:	ae818693          	addi	a3,gp,-1304 # 81e60 <__exit_funcs>
   10c14:	ef5ff06f          	j	10b08 <__internal_atexit>

00010c18 <_dl_tunable_set_mmap_threshold>:
   10c18:	00052783          	lw	a5,0(a0)
   10c1c:	00080737          	lui	a4,0x80
   10c20:	00f77463          	bgeu	a4,a5,10c28 <_dl_tunable_set_mmap_threshold+0x10>
   10c24:	00008067          	ret
   10c28:	00081737          	lui	a4,0x81
   10c2c:	00070713          	mv	a4,a4
   10c30:	00f72423          	sw	a5,8(a4) # 81008 <mp_+0x8>
   10c34:	00100793          	li	a5,1
   10c38:	02f72023          	sw	a5,32(a4)
   10c3c:	00008067          	ret

00010c40 <_dl_tunable_set_mmaps_max>:
   10c40:	00052703          	lw	a4,0(a0)
   10c44:	000817b7          	lui	a5,0x81
   10c48:	00078793          	mv	a5,a5
   10c4c:	00e7ac23          	sw	a4,24(a5) # 81018 <mp_+0x18>
   10c50:	00100713          	li	a4,1
   10c54:	02e7a023          	sw	a4,32(a5)
   10c58:	00008067          	ret

00010c5c <_dl_tunable_set_top_pad>:
   10c5c:	00052703          	lw	a4,0(a0)
   10c60:	000817b7          	lui	a5,0x81
   10c64:	00078793          	mv	a5,a5
   10c68:	00e7a223          	sw	a4,4(a5) # 81004 <mp_+0x4>
   10c6c:	00100713          	li	a4,1
   10c70:	02e7a023          	sw	a4,32(a5)
   10c74:	00008067          	ret

00010c78 <_dl_tunable_set_perturb_byte>:
   10c78:	00052703          	lw	a4,0(a0)
   10c7c:	c2e1a423          	sw	a4,-984(gp) # 81fa0 <perturb_byte>
   10c80:	00008067          	ret

00010c84 <_dl_tunable_set_trim_threshold>:
   10c84:	00052703          	lw	a4,0(a0)
   10c88:	000817b7          	lui	a5,0x81
   10c8c:	00078793          	mv	a5,a5
   10c90:	00e7a023          	sw	a4,0(a5) # 81000 <mp_>
   10c94:	00100713          	li	a4,1
   10c98:	02e7a023          	sw	a4,32(a5)
   10c9c:	00008067          	ret

00010ca0 <_dl_tunable_set_arena_max>:
   10ca0:	00052703          	lw	a4,0(a0)
   10ca4:	000817b7          	lui	a5,0x81
   10ca8:	00e7a823          	sw	a4,16(a5) # 81010 <mp_+0x10>
   10cac:	00008067          	ret

00010cb0 <_dl_tunable_set_arena_test>:
   10cb0:	00052703          	lw	a4,0(a0)
   10cb4:	000817b7          	lui	a5,0x81
   10cb8:	00e7a623          	sw	a4,12(a5) # 8100c <mp_+0xc>
   10cbc:	00008067          	ret

00010cc0 <_dl_tunable_set_tcache_max>:
   10cc0:	00052703          	lw	a4,0(a0)
   10cc4:	3fc00793          	li	a5,1020
   10cc8:	02e7e463          	bltu	a5,a4,10cf0 <_dl_tunable_set_tcache_max+0x30>
   10ccc:	01370793          	addi	a5,a4,19
   10cd0:	ff07f793          	andi	a5,a5,-16
   10cd4:	fff78793          	addi	a5,a5,-1
   10cd8:	0047d793          	srli	a5,a5,0x4
   10cdc:	000816b7          	lui	a3,0x81
   10ce0:	00068693          	mv	a3,a3
   10ce4:	00178793          	addi	a5,a5,1
   10ce8:	02e6aa23          	sw	a4,52(a3) # 81034 <mp_+0x34>
   10cec:	02f6a823          	sw	a5,48(a3)
   10cf0:	00008067          	ret

00010cf4 <_dl_tunable_set_tcache_count>:
   10cf4:	00052703          	lw	a4,0(a0)
   10cf8:	000817b7          	lui	a5,0x81
   10cfc:	02e7ac23          	sw	a4,56(a5) # 81038 <mp_+0x38>
   10d00:	00008067          	ret

00010d04 <_dl_tunable_set_tcache_unsorted_limit>:
   10d04:	00052703          	lw	a4,0(a0)
   10d08:	000817b7          	lui	a5,0x81
   10d0c:	02e7ae23          	sw	a4,60(a5) # 8103c <mp_+0x3c>
   10d10:	00008067          	ret

00010d14 <mem2mem_check>:
   10d14:	06050a63          	beqz	a0,10d88 <mem2mem_check+0x74>
   10d18:	ff850793          	addi	a5,a0,-8
   10d1c:	0037d813          	srli	a6,a5,0x3
   10d20:	00b7d793          	srli	a5,a5,0xb
   10d24:	00f84833          	xor	a6,a6,a5
   10d28:	0ff87813          	andi	a6,a6,255
   10d2c:	00100793          	li	a5,1
   10d30:	06f80263          	beq	a6,a5,10d94 <mem2mem_check+0x80>
   10d34:	ffc52783          	lw	a5,-4(a0)
   10d38:	ff87f693          	andi	a3,a5,-8
   10d3c:	0027f793          	andi	a5,a5,2
   10d40:	ffc68713          	addi	a4,a3,-4
   10d44:	04079463          	bnez	a5,10d8c <mem2mem_check+0x78>
   10d48:	fff70713          	addi	a4,a4,-1
   10d4c:	0ff00893          	li	a7,255
   10d50:	02e5f663          	bgeu	a1,a4,10d7c <mem2mem_check+0x68>
   10d54:	40b707b3          	sub	a5,a4,a1
   10d58:	00e50633          	add	a2,a0,a4
   10d5c:	00f8f463          	bgeu	a7,a5,10d64 <mem2mem_check+0x50>
   10d60:	0ff00793          	li	a5,255
   10d64:	410786b3          	sub	a3,a5,a6
   10d68:	0016b693          	seqz	a3,a3
   10d6c:	40d787b3          	sub	a5,a5,a3
   10d70:	00f60023          	sb	a5,0(a2)
   10d74:	40f70733          	sub	a4,a4,a5
   10d78:	fce5eee3          	bltu	a1,a4,10d54 <mem2mem_check+0x40>
   10d7c:	00b505b3          	add	a1,a0,a1
   10d80:	01058023          	sb	a6,0(a1)
   10d84:	00008067          	ret
   10d88:	00008067          	ret
   10d8c:	ff868713          	addi	a4,a3,-8
   10d90:	fb9ff06f          	j	10d48 <mem2mem_check+0x34>
   10d94:	00200813          	li	a6,2
   10d98:	f9dff06f          	j	10d34 <mem2mem_check+0x20>

00010d9c <mem2chunk_check>:
   10d9c:	00f57793          	andi	a5,a0,15
   10da0:	00050713          	mv	a4,a0
   10da4:	0c079a63          	bnez	a5,10e78 <mem2chunk_check+0xdc>
   10da8:	ff850513          	addi	a0,a0,-8
   10dac:	00b55813          	srli	a6,a0,0xb
   10db0:	ffc72683          	lw	a3,-4(a4)
   10db4:	00355793          	srli	a5,a0,0x3
   10db8:	0107c7b3          	xor	a5,a5,a6
   10dbc:	0ff7f813          	andi	a6,a5,255
   10dc0:	00100793          	li	a5,1
   10dc4:	ff86f613          	andi	a2,a3,-8
   10dc8:	16f80463          	beq	a6,a5,10f30 <mem2chunk_check+0x194>
   10dcc:	0026f793          	andi	a5,a3,2
   10dd0:	0a079863          	bnez	a5,10e80 <mem2chunk_check+0xe4>
   10dd4:	000817b7          	lui	a5,0x81
   10dd8:	00078793          	mv	a5,a5
   10ddc:	0447a883          	lw	a7,68(a5) # 81044 <main_arena+0x4>
   10de0:	0028f893          	andi	a7,a7,2
   10de4:	00089e63          	bnez	a7,10e00 <mem2chunk_check+0x64>
   10de8:	02c7a303          	lw	t1,44(a5)
   10dec:	08656663          	bltu	a0,t1,10e78 <mem2chunk_check+0xdc>
   10df0:	4947ae83          	lw	t4,1172(a5)
   10df4:	00c50e33          	add	t3,a0,a2
   10df8:	01d30333          	add	t1,t1,t4
   10dfc:	066e7e63          	bgeu	t3,t1,10e78 <mem2chunk_check+0xdc>
   10e00:	00f00313          	li	t1,15
   10e04:	06c37a63          	bgeu	t1,a2,10e78 <mem2chunk_check+0xdc>
   10e08:	0086f313          	andi	t1,a3,8
   10e0c:	06031663          	bnez	t1,10e78 <mem2chunk_check+0xdc>
   10e10:	00c50333          	add	t1,a0,a2
   10e14:	00432303          	lw	t1,4(t1)
   10e18:	00137313          	andi	t1,t1,1
   10e1c:	04030e63          	beqz	t1,10e78 <mem2chunk_check+0xdc>
   10e20:	0016f693          	andi	a3,a3,1
   10e24:	02069263          	bnez	a3,10e48 <mem2chunk_check+0xac>
   10e28:	ff872703          	lw	a4,-8(a4)
   10e2c:	00f77693          	andi	a3,a4,15
   10e30:	04069463          	bnez	a3,10e78 <mem2chunk_check+0xdc>
   10e34:	40e506b3          	sub	a3,a0,a4
   10e38:	10088a63          	beqz	a7,10f4c <mem2chunk_check+0x1b0>
   10e3c:	0046a783          	lw	a5,4(a3)
   10e40:	ff87f793          	andi	a5,a5,-8
   10e44:	02f71a63          	bne	a4,a5,10e78 <mem2chunk_check+0xdc>
   10e48:	00360613          	addi	a2,a2,3
   10e4c:	00c506b3          	add	a3,a0,a2
   10e50:	0006c703          	lbu	a4,0(a3)
   10e54:	00e81e63          	bne	a6,a4,10e70 <mem2chunk_check+0xd4>
   10e58:	0e00006f          	j	10f38 <mem2chunk_check+0x19c>
   10e5c:	00f66e63          	bltu	a2,a5,10e78 <mem2chunk_check+0xdc>
   10e60:	40e60633          	sub	a2,a2,a4
   10e64:	00c506b3          	add	a3,a0,a2
   10e68:	0006c703          	lbu	a4,0(a3)
   10e6c:	0d070663          	beq	a4,a6,10f38 <mem2chunk_check+0x19c>
   10e70:	00870793          	addi	a5,a4,8
   10e74:	fe0714e3          	bnez	a4,10e5c <mem2chunk_check+0xc0>
   10e78:	00000513          	li	a0,0
   10e7c:	00008067          	ret
   10e80:	b301a783          	lw	a5,-1232(gp) # 81ea8 <_dl_pagesize>
   10e84:	fff78793          	addi	a5,a5,-1
   10e88:	00f77333          	and	t1,a4,a5
   10e8c:	ff030893          	addi	a7,t1,-16
   10e90:	fef8f893          	andi	a7,a7,-17
   10e94:	04088063          	beqz	a7,10ed4 <mem2chunk_check+0x138>
   10e98:	000028b7          	lui	a7,0x2
   10e9c:	fff30e13          	addi	t3,t1,-1
   10ea0:	ffe88893          	addi	a7,a7,-2 # 1ffe <catch_hook+0x1fd2>
   10ea4:	03c8e863          	bltu	a7,t3,10ed4 <mem2chunk_check+0x138>
   10ea8:	fc030893          	addi	a7,t1,-64
   10eac:	fbf8f893          	andi	a7,a7,-65
   10eb0:	02088263          	beqz	a7,10ed4 <mem2chunk_check+0x138>
   10eb4:	f0030893          	addi	a7,t1,-256
   10eb8:	eff8f893          	andi	a7,a7,-257
   10ebc:	00088c63          	beqz	a7,10ed4 <mem2chunk_check+0x138>
   10ec0:	c0030893          	addi	a7,t1,-1024
   10ec4:	bff8f893          	andi	a7,a7,-1025
   10ec8:	00088663          	beqz	a7,10ed4 <mem2chunk_check+0x138>
   10ecc:	000018b7          	lui	a7,0x1
   10ed0:	fb1314e3          	bne	t1,a7,10e78 <mem2chunk_check+0xdc>
   10ed4:	0036f693          	andi	a3,a3,3
   10ed8:	00200893          	li	a7,2
   10edc:	f9169ee3          	bne	a3,a7,10e78 <mem2chunk_check+0xdc>
   10ee0:	ff872683          	lw	a3,-8(a4)
   10ee4:	40d50733          	sub	a4,a0,a3
   10ee8:	00c686b3          	add	a3,a3,a2
   10eec:	00d76733          	or	a4,a4,a3
   10ef0:	00f777b3          	and	a5,a4,a5
   10ef4:	f80792e3          	bnez	a5,10e78 <mem2chunk_check+0xdc>
   10ef8:	fff60793          	addi	a5,a2,-1
   10efc:	00f506b3          	add	a3,a0,a5
   10f00:	0006c703          	lbu	a4,0(a3)
   10f04:	00e81e63          	bne	a6,a4,10f20 <mem2chunk_check+0x184>
   10f08:	0300006f          	j	10f38 <mem2chunk_check+0x19c>
   10f0c:	f6d7e6e3          	bltu	a5,a3,10e78 <mem2chunk_check+0xdc>
   10f10:	40e787b3          	sub	a5,a5,a4
   10f14:	00f506b3          	add	a3,a0,a5
   10f18:	0006c703          	lbu	a4,0(a3)
   10f1c:	01070e63          	beq	a4,a6,10f38 <mem2chunk_check+0x19c>
   10f20:	00870693          	addi	a3,a4,8
   10f24:	fe0714e3          	bnez	a4,10f0c <mem2chunk_check+0x170>
   10f28:	00000513          	li	a0,0
   10f2c:	f51ff06f          	j	10e7c <mem2chunk_check+0xe0>
   10f30:	00200813          	li	a6,2
   10f34:	e99ff06f          	j	10dcc <mem2chunk_check+0x30>
   10f38:	fff84793          	not	a5,a6
   10f3c:	00f68023          	sb	a5,0(a3)
   10f40:	f2058ee3          	beqz	a1,10e7c <mem2chunk_check+0xe0>
   10f44:	00d5a023          	sw	a3,0(a1)
   10f48:	00008067          	ret
   10f4c:	02c7a783          	lw	a5,44(a5)
   10f50:	eef6f6e3          	bgeu	a3,a5,10e3c <mem2chunk_check+0xa0>
   10f54:	00000513          	li	a0,0
   10f58:	f25ff06f          	j	10e7c <mem2chunk_check+0xe0>

00010f5c <int_mallinfo>:
   10f5c:	03852783          	lw	a5,56(a0)
   10f60:	00050e13          	mv	t3,a0
   10f64:	00058313          	mv	t1,a1
   10f68:	0047ae83          	lw	t4,4(a5)
   10f6c:	00c50693          	addi	a3,a0,12
   10f70:	03850593          	addi	a1,a0,56
   10f74:	ff8efe93          	andi	t4,t4,-8
   10f78:	00000813          	li	a6,0
   10f7c:	00000513          	li	a0,0
   10f80:	0006a783          	lw	a5,0(a3)
   10f84:	00078e63          	beqz	a5,10fa0 <int_mallinfo+0x44>
   10f88:	0047a703          	lw	a4,4(a5)
   10f8c:	0087a783          	lw	a5,8(a5)
   10f90:	00180813          	addi	a6,a6,1
   10f94:	ff877713          	andi	a4,a4,-8
   10f98:	00e50533          	add	a0,a0,a4
   10f9c:	fe0796e3          	bnez	a5,10f88 <int_mallinfo+0x2c>
   10fa0:	00468693          	addi	a3,a3,4
   10fa4:	fcd59ee3          	bne	a1,a3,10f80 <int_mallinfo+0x24>
   10fa8:	00ae86b3          	add	a3,t4,a0
   10fac:	430e0893          	addi	a7,t3,1072
   10fb0:	00100613          	li	a2,1
   10fb4:	00c5a783          	lw	a5,12(a1)
   10fb8:	00b78e63          	beq	a5,a1,10fd4 <int_mallinfo+0x78>
   10fbc:	0047a703          	lw	a4,4(a5)
   10fc0:	00c7a783          	lw	a5,12(a5)
   10fc4:	00160613          	addi	a2,a2,1
   10fc8:	ff877713          	andi	a4,a4,-8
   10fcc:	00e686b3          	add	a3,a3,a4
   10fd0:	feb796e3          	bne	a5,a1,10fbc <int_mallinfo+0x60>
   10fd4:	00858593          	addi	a1,a1,8
   10fd8:	fcb89ee3          	bne	a7,a1,10fb4 <int_mallinfo+0x58>
   10fdc:	454e2283          	lw	t0,1108(t3)
   10fe0:	01c32783          	lw	a5,28(t1)
   10fe4:	00832f83          	lw	t6,8(t1)
   10fe8:	02032883          	lw	a7,32(t1)
   10fec:	01832703          	lw	a4,24(t1)
   10ff0:	00432f03          	lw	t5,4(t1)
   10ff4:	00032583          	lw	a1,0(t1)
   10ff8:	00f287b3          	add	a5,t0,a5
   10ffc:	010f8fb3          	add	t6,t6,a6
   11000:	00d88833          	add	a6,a7,a3
   11004:	40d786b3          	sub	a3,a5,a3
   11008:	000817b7          	lui	a5,0x81
   1100c:	00cf0f33          	add	t5,t5,a2
   11010:	00a70533          	add	a0,a4,a0
   11014:	00558633          	add	a2,a1,t0
   11018:	00078793          	mv	a5,a5
   1101c:	01f32423          	sw	t6,8(t1)
   11020:	01e32223          	sw	t5,4(t1)
   11024:	03032023          	sw	a6,32(t1)
   11028:	00d32e23          	sw	a3,28(t1)
   1102c:	00c32023          	sw	a2,0(t1)
   11030:	00a32c23          	sw	a0,24(t1)
   11034:	04078713          	addi	a4,a5,64 # 81040 <main_arena>
   11038:	00ee0463          	beq	t3,a4,11040 <int_mallinfo+0xe4>
   1103c:	00008067          	ret
   11040:	0147a703          	lw	a4,20(a5)
   11044:	0247a783          	lw	a5,36(a5)
   11048:	00032a23          	sw	zero,20(t1)
   1104c:	00e32623          	sw	a4,12(t1)
   11050:	00f32823          	sw	a5,16(t1)
   11054:	03d32223          	sw	t4,36(t1)
   11058:	00008067          	ret

0001105c <__malloc_assert>:
   1105c:	b141a303          	lw	t1,-1260(gp) # 81e8c <__progname>
   11060:	fe010113          	addi	sp,sp,-32
   11064:	00112e23          	sw	ra,28(sp)
   11068:	00034883          	lbu	a7,0(t1)
   1106c:	00058713          	mv	a4,a1
   11070:	00060793          	mv	a5,a2
   11074:	00068813          	mv	a6,a3
   11078:	02089c63          	bnez	a7,110b0 <__malloc_assert+0x54>
   1107c:	000676b7          	lui	a3,0x67
   11080:	a9c68693          	addi	a3,a3,-1380 # 66a9c <expected2.3+0x8>
   11084:	000638b7          	lui	a7,0x63
   11088:	000635b7          	lui	a1,0x63
   1108c:	59088893          	addi	a7,a7,1424 # 63590 <__PRETTY_FUNCTION__.1+0x14>
   11090:	00030613          	mv	a2,t1
   11094:	59458593          	addi	a1,a1,1428 # 63594 <__PRETTY_FUNCTION__.1+0x18>
   11098:	00a12023          	sw	a0,0(sp)
   1109c:	00000513          	li	a0,0
   110a0:	4b5140ef          	jal	ra,25d54 <__fxprintf>
   110a4:	b7c1a503          	lw	a0,-1156(gp) # 81ef4 <_IO_stderr>
   110a8:	08c150ef          	jal	ra,26134 <_IO_fflush>
   110ac:	90cff0ef          	jal	ra,101b8 <abort>
   110b0:	000638b7          	lui	a7,0x63
   110b4:	59088693          	addi	a3,a7,1424 # 63590 <__PRETTY_FUNCTION__.1+0x14>
   110b8:	fd1ff06f          	j	11088 <__malloc_assert+0x2c>

000110bc <malloc_printerr>:
   110bc:	000765b7          	lui	a1,0x76
   110c0:	ff010113          	addi	sp,sp,-16
   110c4:	00050613          	mv	a2,a0
   110c8:	04c58593          	addi	a1,a1,76 # 7604c <__PRETTY_FUNCTION__.1+0x5c>
   110cc:	00100513          	li	a0,1
   110d0:	00112623          	sw	ra,12(sp)
   110d4:	478170ef          	jal	ra,2854c <__libc_message>

000110d8 <top_check>:
   110d8:	000817b7          	lui	a5,0x81
   110dc:	00078793          	mv	a5,a5
   110e0:	0787a683          	lw	a3,120(a5) # 81078 <main_arena+0x38>
   110e4:	07878713          	addi	a4,a5,120
   110e8:	04e68263          	beq	a3,a4,1112c <top_check+0x54>
   110ec:	0046a703          	lw	a4,4(a3)
   110f0:	00277613          	andi	a2,a4,2
   110f4:	02061e63          	bnez	a2,11130 <top_check+0x58>
   110f8:	ff877613          	andi	a2,a4,-8
   110fc:	00f00593          	li	a1,15
   11100:	02c5f863          	bgeu	a1,a2,11130 <top_check+0x58>
   11104:	00177713          	andi	a4,a4,1
   11108:	02070463          	beqz	a4,11130 <top_check+0x58>
   1110c:	0447a703          	lw	a4,68(a5)
   11110:	00277713          	andi	a4,a4,2
   11114:	00071c63          	bnez	a4,1112c <top_check+0x54>
   11118:	02c7a703          	lw	a4,44(a5)
   1111c:	4947a783          	lw	a5,1172(a5)
   11120:	00c686b3          	add	a3,a3,a2
   11124:	00f707b3          	add	a5,a4,a5
   11128:	00f69463          	bne	a3,a5,11130 <top_check+0x58>
   1112c:	00008067          	ret
   11130:	00063537          	lui	a0,0x63
   11134:	ff010113          	addi	sp,sp,-16
   11138:	5bc50513          	addi	a0,a0,1468 # 635bc <__PRETTY_FUNCTION__.1+0x40>
   1113c:	00112623          	sw	ra,12(sp)
   11140:	f7dff0ef          	jal	ra,110bc <malloc_printerr>

00011144 <new_heap>:
   11144:	fe010113          	addi	sp,sp,-32
   11148:	00112e23          	sw	ra,28(sp)
   1114c:	00812c23          	sw	s0,24(sp)
   11150:	00912a23          	sw	s1,20(sp)
   11154:	01212823          	sw	s2,16(sp)
   11158:	01312623          	sw	s3,12(sp)
   1115c:	01412423          	sw	s4,8(sp)
   11160:	01512223          	sw	s5,4(sp)
   11164:	00b505b3          	add	a1,a0,a1
   11168:	00008737          	lui	a4,0x8
   1116c:	b301a783          	lw	a5,-1232(gp) # 81ea8 <_dl_pagesize>
   11170:	10e5e263          	bltu	a1,a4,11274 <new_heap+0x130>
   11174:	00100737          	lui	a4,0x100
   11178:	10b76263          	bltu	a4,a1,1127c <new_heap+0x138>
   1117c:	c181a503          	lw	a0,-1000(gp) # 81f90 <aligned_heap_area>
   11180:	fff78493          	addi	s1,a5,-1
   11184:	00b485b3          	add	a1,s1,a1
   11188:	40f007b3          	neg	a5,a5
   1118c:	00b7f4b3          	and	s1,a5,a1
   11190:	04050063          	beqz	a0,111d0 <new_heap+0x8c>
   11194:	000046b7          	lui	a3,0x4
   11198:	00000793          	li	a5,0
   1119c:	fff00713          	li	a4,-1
   111a0:	02268693          	addi	a3,a3,34 # 4022 <catch_hook+0x3ff6>
   111a4:	00000613          	li	a2,0
   111a8:	001005b7          	lui	a1,0x100
   111ac:	76c060ef          	jal	ra,17918 <__mmap>
   111b0:	fff00793          	li	a5,-1
   111b4:	c001ac23          	sw	zero,-1000(gp) # 81f90 <aligned_heap_area>
   111b8:	00050413          	mv	s0,a0
   111bc:	00f50a63          	beq	a0,a5,111d0 <new_heap+0x8c>
   111c0:	00c51793          	slli	a5,a0,0xc
   111c4:	06078663          	beqz	a5,11230 <new_heap+0xec>
   111c8:	001005b7          	lui	a1,0x100
   111cc:	7a4060ef          	jal	ra,17970 <__munmap>
   111d0:	00004437          	lui	s0,0x4
   111d4:	00000793          	li	a5,0
   111d8:	fff00713          	li	a4,-1
   111dc:	02240693          	addi	a3,s0,34 # 4022 <catch_hook+0x3ff6>
   111e0:	00000613          	li	a2,0
   111e4:	002005b7          	lui	a1,0x200
   111e8:	00000513          	li	a0,0
   111ec:	72c060ef          	jal	ra,17918 <__mmap>
   111f0:	fff00793          	li	a5,-1
   111f4:	00050913          	mv	s2,a0
   111f8:	08f50a63          	beq	a0,a5,1128c <new_heap+0x148>
   111fc:	001007b7          	lui	a5,0x100
   11200:	fff78413          	addi	s0,a5,-1 # fffff <__BSS_END__+0x7d487>
   11204:	00850433          	add	s0,a0,s0
   11208:	fff00737          	lui	a4,0xfff00
   1120c:	00e47433          	and	s0,s0,a4
   11210:	40a40ab3          	sub	s5,s0,a0
   11214:	00f40a33          	add	s4,s0,a5
   11218:	0aa41863          	bne	s0,a0,112c8 <new_heap+0x184>
   1121c:	c141ac23          	sw	s4,-1000(gp) # 81f90 <aligned_heap_area>
   11220:	001005b7          	lui	a1,0x100
   11224:	415585b3          	sub	a1,a1,s5
   11228:	000a0513          	mv	a0,s4
   1122c:	744060ef          	jal	ra,17970 <__munmap>
   11230:	00300613          	li	a2,3
   11234:	00048593          	mv	a1,s1
   11238:	00040513          	mv	a0,s0
   1123c:	750060ef          	jal	ra,1798c <__mprotect>
   11240:	08051a63          	bnez	a0,112d4 <new_heap+0x190>
   11244:	00942423          	sw	s1,8(s0)
   11248:	00942623          	sw	s1,12(s0)
   1124c:	01c12083          	lw	ra,28(sp)
   11250:	00040513          	mv	a0,s0
   11254:	01812403          	lw	s0,24(sp)
   11258:	01412483          	lw	s1,20(sp)
   1125c:	01012903          	lw	s2,16(sp)
   11260:	00c12983          	lw	s3,12(sp)
   11264:	00812a03          	lw	s4,8(sp)
   11268:	00412a83          	lw	s5,4(sp)
   1126c:	02010113          	addi	sp,sp,32
   11270:	00008067          	ret
   11274:	000085b7          	lui	a1,0x8
   11278:	f05ff06f          	j	1117c <new_heap+0x38>
   1127c:	001005b7          	lui	a1,0x100
   11280:	eea5fee3          	bgeu	a1,a0,1117c <new_heap+0x38>
   11284:	00000413          	li	s0,0
   11288:	fc5ff06f          	j	1124c <new_heap+0x108>
   1128c:	02240693          	addi	a3,s0,34
   11290:	00000793          	li	a5,0
   11294:	fff00713          	li	a4,-1
   11298:	00000613          	li	a2,0
   1129c:	001005b7          	lui	a1,0x100
   112a0:	00000513          	li	a0,0
   112a4:	674060ef          	jal	ra,17918 <__mmap>
   112a8:	00050413          	mv	s0,a0
   112ac:	fd250ce3          	beq	a0,s2,11284 <new_heap+0x140>
   112b0:	00c51793          	slli	a5,a0,0xc
   112b4:	f6078ee3          	beqz	a5,11230 <new_heap+0xec>
   112b8:	001005b7          	lui	a1,0x100
   112bc:	6b4060ef          	jal	ra,17970 <__munmap>
   112c0:	00000413          	li	s0,0
   112c4:	f89ff06f          	j	1124c <new_heap+0x108>
   112c8:	000a8593          	mv	a1,s5
   112cc:	6a4060ef          	jal	ra,17970 <__munmap>
   112d0:	f51ff06f          	j	11220 <new_heap+0xdc>
   112d4:	00040513          	mv	a0,s0
   112d8:	fe1ff06f          	j	112b8 <new_heap+0x174>

000112dc <alloc_perturb>:
   112dc:	c281a783          	lw	a5,-984(gp) # 81fa0 <perturb_byte>
   112e0:	00079463          	bnez	a5,112e8 <alloc_perturb+0xc>
   112e4:	00008067          	ret
   112e8:	00058613          	mv	a2,a1
   112ec:	0ff7c593          	xori	a1,a5,255
   112f0:	6010506f          	j	170f0 <memset>

000112f4 <_dl_tunable_set_mallopt_check>:
   112f4:	00052783          	lw	a5,0(a0)
   112f8:	02078e63          	beqz	a5,11334 <_dl_tunable_set_mallopt_check+0x40>
   112fc:	00100713          	li	a4,1
   11300:	c0e1aa23          	sw	a4,-1004(gp) # 81f8c <using_malloc_checking>
   11304:	000147b7          	lui	a5,0x14
   11308:	7d078793          	addi	a5,a5,2000 # 147d0 <malloc_check>
   1130c:	b0f1a423          	sw	a5,-1272(gp) # 81e80 <__malloc_hook>
   11310:	000147b7          	lui	a5,0x14
   11314:	88078793          	addi	a5,a5,-1920 # 13880 <free_check>
   11318:	c2f1a823          	sw	a5,-976(gp) # 81fa8 <__free_hook>
   1131c:	000157b7          	lui	a5,0x15
   11320:	f3478793          	addi	a5,a5,-204 # 14f34 <realloc_check>
   11324:	b0f1a223          	sw	a5,-1276(gp) # 81e7c <__realloc_hook>
   11328:	000157b7          	lui	a5,0x15
   1132c:	ad878793          	addi	a5,a5,-1320 # 14ad8 <memalign_check>
   11330:	b0f1a023          	sw	a5,-1280(gp) # 81e78 <__memalign_hook>
   11334:	00008067          	ret

00011338 <__malloc_info.part.0>:
   11338:	81010113          	addi	sp,sp,-2032
   1133c:	7d912223          	sw	s9,1988(sp)
   11340:	00081cb7          	lui	s9,0x81
   11344:	7e912223          	sw	s1,2020(sp)
   11348:	7f212023          	sw	s2,2016(sp)
   1134c:	7d512a23          	sw	s5,2004(sp)
   11350:	7bb12e23          	sw	s11,1980(sp)
   11354:	000c8793          	mv	a5,s9
   11358:	7e112623          	sw	ra,2028(sp)
   1135c:	7e812423          	sw	s0,2024(sp)
   11360:	7d312e23          	sw	s3,2012(sp)
   11364:	7d412c23          	sw	s4,2008(sp)
   11368:	7d612823          	sw	s6,2000(sp)
   1136c:	7d712623          	sw	s7,1996(sp)
   11370:	7d812423          	sw	s8,1992(sp)
   11374:	7da12023          	sw	s10,1984(sp)
   11378:	ec010113          	addi	sp,sp,-320
   1137c:	04f12423          	sw	a5,72(sp)
   11380:	000817b7          	lui	a5,0x81
   11384:	04078913          	addi	s2,a5,64 # 81040 <main_arena>
   11388:	fffff7b7          	lui	a5,0xfffff
   1138c:	76078793          	addi	a5,a5,1888 # fffff760 <__BSS_END__+0xfff7cbe8>
   11390:	04f12223          	sw	a5,68(sp)
   11394:	000017b7          	lui	a5,0x1
   11398:	8a078793          	addi	a5,a5,-1888 # 8a0 <catch_hook+0x874>
   1139c:	00050d93          	mv	s11,a0
   113a0:	02012e23          	sw	zero,60(sp)
   113a4:	02012c23          	sw	zero,56(sp)
   113a8:	02012a23          	sw	zero,52(sp)
   113ac:	02012823          	sw	zero,48(sp)
   113b0:	02012223          	sw	zero,36(sp)
   113b4:	02012623          	sw	zero,44(sp)
   113b8:	02012023          	sw	zero,32(sp)
   113bc:	02012423          	sw	zero,40(sp)
   113c0:	04012023          	sw	zero,64(sp)
   113c4:	10010a93          	addi	s5,sp,256
   113c8:	04f12623          	sw	a5,76(sp)
   113cc:	000634b7          	lui	s1,0x63
   113d0:	04012403          	lw	s0,64(sp)
   113d4:	000637b7          	lui	a5,0x63
   113d8:	5dc78593          	addi	a1,a5,1500 # 635dc <__PRETTY_FUNCTION__.1+0x60>
   113dc:	00040613          	mv	a2,s0
   113e0:	000d8513          	mv	a0,s11
   113e4:	41d0d0ef          	jal	ra,1f000 <__fprintf>
   113e8:	00140793          	addi	a5,s0,1
   113ec:	04f12023          	sw	a5,64(sp)
   113f0:	00100713          	li	a4,1
   113f4:	100927af          	lr.w	a5,(s2)
   113f8:	00079663          	bnez	a5,11404 <__malloc_info.part.0+0xcc>
   113fc:	1ce926af          	sc.w.aq	a3,a4,(s2)
   11400:	fe069ae3          	bnez	a3,113f4 <__malloc_info.part.0+0xbc>
   11404:	40079863          	bnez	a5,11814 <__malloc_info.part.0+0x4dc>
   11408:	000017b7          	lui	a5,0x1
   1140c:	04010713          	addi	a4,sp,64
   11410:	8b078793          	addi	a5,a5,-1872 # 8b0 <catch_hook+0x884>
   11414:	00e787b3          	add	a5,a5,a4
   11418:	04412703          	lw	a4,68(sp)
   1141c:	00c90613          	addi	a2,s2,12
   11420:	00000993          	li	s3,0
   11424:	00e78b33          	add	s6,a5,a4
   11428:	000b0693          	mv	a3,s6
   1142c:	00000a13          	li	s4,0
   11430:	02c0006f          	j	1145c <__malloc_info.part.0+0x124>
   11434:	0006a223          	sw	zero,4(a3)
   11438:	0046a783          	lw	a5,4(a3)
   1143c:	00000713          	li	a4,0
   11440:	0006a623          	sw	zero,12(a3)
   11444:	02e78733          	mul	a4,a5,a4
   11448:	0006a023          	sw	zero,0(a3)
   1144c:	01068693          	addi	a3,a3,16
   11450:	00460613          	addi	a2,a2,4
   11454:	fee6ac23          	sw	a4,-8(a3)
   11458:	04da8c63          	beq	s5,a3,114b0 <__malloc_info.part.0+0x178>
   1145c:	00062783          	lw	a5,0(a2)
   11460:	fc078ae3          	beqz	a5,11434 <__malloc_info.part.0+0xfc>
   11464:	0047a583          	lw	a1,4(a5)
   11468:	00000713          	li	a4,0
   1146c:	ff85f593          	andi	a1,a1,-8
   11470:	0087a783          	lw	a5,8(a5)
   11474:	00170713          	addi	a4,a4,1 # fff00001 <__BSS_END__+0xffe7d489>
   11478:	fe079ce3          	bnez	a5,11470 <__malloc_info.part.0+0x138>
   1147c:	02e587b3          	mul	a5,a1,a4
   11480:	00b6a223          	sw	a1,4(a3)
   11484:	00e6a623          	sw	a4,12(a3)
   11488:	00e989b3          	add	s3,s3,a4
   1148c:	ff158513          	addi	a0,a1,-15 # ffff1 <__BSS_END__+0x7d479>
   11490:	00a6a023          	sw	a0,0(a3)
   11494:	01068693          	addi	a3,a3,16
   11498:	00460613          	addi	a2,a2,4
   1149c:	00fa0a33          	add	s4,s4,a5
   114a0:	ff46a783          	lw	a5,-12(a3)
   114a4:	02e78733          	mul	a4,a5,a4
   114a8:	fee6ac23          	sw	a4,-8(a3)
   114ac:	fada98e3          	bne	s5,a3,1145c <__malloc_info.part.0+0x124>
   114b0:	04c12783          	lw	a5,76(sp)
   114b4:	000a8613          	mv	a2,s5
   114b8:	03890513          	addi	a0,s2,56
   114bc:	00fb03b3          	add	t2,s6,a5
   114c0:	00000c93          	li	s9,0
   114c4:	00000d13          	li	s10,0
   114c8:	fff00293          	li	t0,-1
   114cc:	00852703          	lw	a4,8(a0)
   114d0:	00562023          	sw	t0,0(a2)
   114d4:	00062623          	sw	zero,12(a2)
   114d8:	00062423          	sw	zero,8(a2)
   114dc:	00062223          	sw	zero,4(a2)
   114e0:	0a071e63          	bnez	a4,1159c <__malloc_info.part.0+0x264>
   114e4:	00062023          	sw	zero,0(a2)
   114e8:	00862783          	lw	a5,8(a2)
   114ec:	01060613          	addi	a2,a2,16
   114f0:	00850513          	addi	a0,a0,8
   114f4:	00fc8cb3          	add	s9,s9,a5
   114f8:	fc761ae3          	bne	a2,t2,114cc <__malloc_info.part.0+0x194>
   114fc:	000817b7          	lui	a5,0x81
   11500:	04078793          	addi	a5,a5,64 # 81040 <main_arena>
   11504:	22f91863          	bne	s2,a5,11734 <__malloc_info.part.0+0x3fc>
   11508:	00012e23          	sw	zero,28(sp)
   1150c:	00012c23          	sw	zero,24(sp)
   11510:	00012a23          	sw	zero,20(sp)
   11514:	00000793          	li	a5,0
   11518:	0f50000f          	fence	iorw,ow
   1151c:	08f927af          	amoswap.w	a5,a5,(s2)
   11520:	00100713          	li	a4,1
   11524:	26f74863          	blt	a4,a5,11794 <__malloc_info.part.0+0x45c>
   11528:	02012783          	lw	a5,32(sp)
   1152c:	00000713          	li	a4,0
   11530:	08a00c13          	li	s8,138
   11534:	013787b3          	add	a5,a5,s3
   11538:	02f12023          	sw	a5,32(sp)
   1153c:	02412783          	lw	a5,36(sp)
   11540:	00b00413          	li	s0,11
   11544:	014787b3          	add	a5,a5,s4
   11548:	02f12223          	sw	a5,36(sp)
   1154c:	02812783          	lw	a5,40(sp)
   11550:	01a787b3          	add	a5,a5,s10
   11554:	02f12423          	sw	a5,40(sp)
   11558:	02c12783          	lw	a5,44(sp)
   1155c:	019787b3          	add	a5,a5,s9
   11560:	02f12623          	sw	a5,44(sp)
   11564:	00cb2783          	lw	a5,12(s6)
   11568:	00170b93          	addi	s7,a4,1
   1156c:	02078063          	beqz	a5,1158c <__malloc_info.part.0+0x254>
   11570:	5f448593          	addi	a1,s1,1524 # 635f4 <__PRETTY_FUNCTION__.1+0x78>
   11574:	000d8513          	mv	a0,s11
   11578:	00870c63          	beq	a4,s0,11590 <__malloc_info.part.0+0x258>
   1157c:	008b2703          	lw	a4,8(s6)
   11580:	004b2683          	lw	a3,4(s6)
   11584:	000b2603          	lw	a2,0(s6)
   11588:	2790d0ef          	jal	ra,1f000 <__fprintf>
   1158c:	078b8463          	beq	s7,s8,115f4 <__malloc_info.part.0+0x2bc>
   11590:	010b0b13          	addi	s6,s6,16
   11594:	000b8713          	mv	a4,s7
   11598:	fcdff06f          	j	11564 <__malloc_info.part.0+0x22c>
   1159c:	f4e504e3          	beq	a0,a4,114e4 <__malloc_info.part.0+0x1ac>
   115a0:	00100693          	li	a3,1
   115a4:	00000893          	li	a7,0
   115a8:	fff00f13          	li	t5,-1
   115ac:	00000593          	li	a1,0
   115b0:	00472783          	lw	a5,4(a4)
   115b4:	00068f93          	mv	t6,a3
   115b8:	00168693          	addi	a3,a3,1
   115bc:	00f585b3          	add	a1,a1,a5
   115c0:	01e7f463          	bgeu	a5,t5,115c8 <__malloc_info.part.0+0x290>
   115c4:	00078f13          	mv	t5,a5
   115c8:	00f8f463          	bgeu	a7,a5,115d0 <__malloc_info.part.0+0x298>
   115cc:	00078893          	mv	a7,a5
   115d0:	00872703          	lw	a4,8(a4)
   115d4:	fca71ee3          	bne	a4,a0,115b0 <__malloc_info.part.0+0x278>
   115d8:	01f62623          	sw	t6,12(a2)
   115dc:	00b62423          	sw	a1,8(a2)
   115e0:	01e62023          	sw	t5,0(a2)
   115e4:	01162223          	sw	a7,4(a2)
   115e8:	01fd0d33          	add	s10,s10,t6
   115ec:	ee0f9ee3          	bnez	t6,114e8 <__malloc_info.part.0+0x1b0>
   115f0:	ef5ff06f          	j	114e4 <__malloc_info.part.0+0x1ac>
   115f4:	10c12783          	lw	a5,268(sp)
   115f8:	1a079c63          	bnez	a5,117b0 <__malloc_info.part.0+0x478>
   115fc:	03012303          	lw	t1,48(sp)
   11600:	45492803          	lw	a6,1108(s2)
   11604:	45892883          	lw	a7,1112(s2)
   11608:	000635b7          	lui	a1,0x63
   1160c:	01030333          	add	t1,t1,a6
   11610:	02612823          	sw	t1,48(sp)
   11614:	03412303          	lw	t1,52(sp)
   11618:	000c8793          	mv	a5,s9
   1161c:	000d0713          	mv	a4,s10
   11620:	01130333          	add	t1,t1,a7
   11624:	000a0693          	mv	a3,s4
   11628:	00098613          	mv	a2,s3
   1162c:	67458593          	addi	a1,a1,1652 # 63674 <__PRETTY_FUNCTION__.1+0xf8>
   11630:	000d8513          	mv	a0,s11
   11634:	02612a23          	sw	t1,52(sp)
   11638:	1c90d0ef          	jal	ra,1f000 <__fprintf>
   1163c:	000817b7          	lui	a5,0x81
   11640:	04078793          	addi	a5,a5,64 # 81040 <main_arena>
   11644:	18f90663          	beq	s2,a5,117d0 <__malloc_info.part.0+0x498>
   11648:	01812983          	lw	s3,24(sp)
   1164c:	01412403          	lw	s0,20(sp)
   11650:	01c12703          	lw	a4,28(sp)
   11654:	000637b7          	lui	a5,0x63
   11658:	71c78593          	addi	a1,a5,1820 # 6371c <__PRETTY_FUNCTION__.1+0x1a0>
   1165c:	00098693          	mv	a3,s3
   11660:	00040613          	mv	a2,s0
   11664:	000d8513          	mv	a0,s11
   11668:	1990d0ef          	jal	ra,1f000 <__fprintf>
   1166c:	03812783          	lw	a5,56(sp)
   11670:	008787b3          	add	a5,a5,s0
   11674:	02f12c23          	sw	a5,56(sp)
   11678:	03c12783          	lw	a5,60(sp)
   1167c:	013787b3          	add	a5,a5,s3
   11680:	02f12e23          	sw	a5,60(sp)
   11684:	000637b7          	lui	a5,0x63
   11688:	7d478513          	addi	a0,a5,2004 # 637d4 <__PRETTY_FUNCTION__.1+0x258>
   1168c:	000d8593          	mv	a1,s11
   11690:	595140ef          	jal	ra,26424 <_IO_fputs>
   11694:	44892903          	lw	s2,1096(s2)
   11698:	000817b7          	lui	a5,0x81
   1169c:	04078793          	addi	a5,a5,64 # 81040 <main_arena>
   116a0:	d2f918e3          	bne	s2,a5,113d0 <__malloc_info.part.0+0x98>
   116a4:	04812783          	lw	a5,72(sp)
   116a8:	02812703          	lw	a4,40(sp)
   116ac:	02412683          	lw	a3,36(sp)
   116b0:	0247a883          	lw	a7,36(a5)
   116b4:	0147a803          	lw	a6,20(a5)
   116b8:	03c12783          	lw	a5,60(sp)
   116bc:	02012603          	lw	a2,32(sp)
   116c0:	000635b7          	lui	a1,0x63
   116c4:	00f12623          	sw	a5,12(sp)
   116c8:	03812783          	lw	a5,56(sp)
   116cc:	000d8513          	mv	a0,s11
   116d0:	7e058593          	addi	a1,a1,2016 # 637e0 <__PRETTY_FUNCTION__.1+0x264>
   116d4:	00f12423          	sw	a5,8(sp)
   116d8:	03412783          	lw	a5,52(sp)
   116dc:	00f12223          	sw	a5,4(sp)
   116e0:	03012783          	lw	a5,48(sp)
   116e4:	00f12023          	sw	a5,0(sp)
   116e8:	02c12783          	lw	a5,44(sp)
   116ec:	1150d0ef          	jal	ra,1f000 <__fprintf>
   116f0:	14010113          	addi	sp,sp,320
   116f4:	7ec12083          	lw	ra,2028(sp)
   116f8:	7e812403          	lw	s0,2024(sp)
   116fc:	7e412483          	lw	s1,2020(sp)
   11700:	7e012903          	lw	s2,2016(sp)
   11704:	7dc12983          	lw	s3,2012(sp)
   11708:	7d812a03          	lw	s4,2008(sp)
   1170c:	7d412a83          	lw	s5,2004(sp)
   11710:	7d012b03          	lw	s6,2000(sp)
   11714:	7cc12b83          	lw	s7,1996(sp)
   11718:	7c812c03          	lw	s8,1992(sp)
   1171c:	7c412c83          	lw	s9,1988(sp)
   11720:	7c012d03          	lw	s10,1984(sp)
   11724:	7bc12d83          	lw	s11,1980(sp)
   11728:	00000513          	li	a0,0
   1172c:	7f010113          	addi	sp,sp,2032
   11730:	00008067          	ret
   11734:	03892783          	lw	a5,56(s2)
   11738:	fff00737          	lui	a4,0xfff00
   1173c:	00012e23          	sw	zero,28(sp)
   11740:	00e7f7b3          	and	a5,a5,a4
   11744:	00012c23          	sw	zero,24(sp)
   11748:	00012a23          	sw	zero,20(sp)
   1174c:	0087a683          	lw	a3,8(a5)
   11750:	01412603          	lw	a2,20(sp)
   11754:	00c7a703          	lw	a4,12(a5)
   11758:	0047a783          	lw	a5,4(a5)
   1175c:	00d606b3          	add	a3,a2,a3
   11760:	00d12a23          	sw	a3,20(sp)
   11764:	01812683          	lw	a3,24(sp)
   11768:	00e68733          	add	a4,a3,a4
   1176c:	00e12c23          	sw	a4,24(sp)
   11770:	01c12703          	lw	a4,28(sp)
   11774:	00170713          	addi	a4,a4,1 # fff00001 <__BSS_END__+0xffe7d489>
   11778:	00e12e23          	sw	a4,28(sp)
   1177c:	fc0798e3          	bnez	a5,1174c <__malloc_info.part.0+0x414>
   11780:	00000793          	li	a5,0
   11784:	0f50000f          	fence	iorw,ow
   11788:	08f927af          	amoswap.w	a5,a5,(s2)
   1178c:	00100713          	li	a4,1
   11790:	d8f75ce3          	bge	a4,a5,11528 <__malloc_info.part.0+0x1f0>
   11794:	06200893          	li	a7,98
   11798:	00090513          	mv	a0,s2
   1179c:	08100593          	li	a1,129
   117a0:	00100613          	li	a2,1
   117a4:	00000693          	li	a3,0
   117a8:	00000073          	ecall
   117ac:	d7dff06f          	j	11528 <__malloc_info.part.0+0x1f0>
   117b0:	10812703          	lw	a4,264(sp)
   117b4:	10412683          	lw	a3,260(sp)
   117b8:	10012603          	lw	a2,256(sp)
   117bc:	000635b7          	lui	a1,0x63
   117c0:	63858593          	addi	a1,a1,1592 # 63638 <__PRETTY_FUNCTION__.1+0xbc>
   117c4:	000d8513          	mv	a0,s11
   117c8:	0390d0ef          	jal	ra,1f000 <__fprintf>
   117cc:	e31ff06f          	j	115fc <__malloc_info.part.0+0x2c4>
   117d0:	04812403          	lw	s0,72(sp)
   117d4:	000d8513          	mv	a0,s11
   117d8:	49442783          	lw	a5,1172(s0)
   117dc:	00f12a23          	sw	a5,20(sp)
   117e0:	01412683          	lw	a3,20(sp)
   117e4:	000637b7          	lui	a5,0x63
   117e8:	78c78593          	addi	a1,a5,1932 # 6378c <__PRETTY_FUNCTION__.1+0x210>
   117ec:	00068613          	mv	a2,a3
   117f0:	0110d0ef          	jal	ra,1f000 <__fprintf>
   117f4:	49442783          	lw	a5,1172(s0)
   117f8:	03812703          	lw	a4,56(sp)
   117fc:	00f70733          	add	a4,a4,a5
   11800:	02e12c23          	sw	a4,56(sp)
   11804:	03c12703          	lw	a4,60(sp)
   11808:	00f707b3          	add	a5,a4,a5
   1180c:	02f12e23          	sw	a5,60(sp)
   11810:	e75ff06f          	j	11684 <__malloc_info.part.0+0x34c>
   11814:	00090513          	mv	a0,s2
   11818:	109060ef          	jal	ra,18120 <__lll_lock_wait_private>
   1181c:	bedff06f          	j	11408 <__malloc_info.part.0+0xd0>

00011820 <systrim.constprop.0>:
   11820:	fe010113          	addi	sp,sp,-32
   11824:	00912a23          	sw	s1,20(sp)
   11828:	000814b7          	lui	s1,0x81
   1182c:	00048493          	mv	s1,s1
   11830:	0784a783          	lw	a5,120(s1) # 81078 <main_arena+0x38>
   11834:	00812c23          	sw	s0,24(sp)
   11838:	00112e23          	sw	ra,28(sp)
   1183c:	0047a403          	lw	s0,4(a5)
   11840:	01212823          	sw	s2,16(sp)
   11844:	01312623          	sw	s3,12(sp)
   11848:	ff847413          	andi	s0,s0,-8
   1184c:	01412423          	sw	s4,8(sp)
   11850:	fef40793          	addi	a5,s0,-17
   11854:	02f57a63          	bgeu	a0,a5,11888 <systrim.constprop.0+0x68>
   11858:	b301a903          	lw	s2,-1232(gp) # 81ea8 <_dl_pagesize>
   1185c:	40a78533          	sub	a0,a5,a0
   11860:	41200933          	neg	s2,s2
   11864:	00a97933          	and	s2,s2,a0
   11868:	02090063          	beqz	s2,11888 <systrim.constprop.0+0x68>
   1186c:	b0c1a783          	lw	a5,-1268(gp) # 81e84 <__morecore>
   11870:	00000513          	li	a0,0
   11874:	000780e7          	jalr	a5
   11878:	0784a783          	lw	a5,120(s1)
   1187c:	00050993          	mv	s3,a0
   11880:	008787b3          	add	a5,a5,s0
   11884:	02f50463          	beq	a0,a5,118ac <systrim.constprop.0+0x8c>
   11888:	00000513          	li	a0,0
   1188c:	01c12083          	lw	ra,28(sp)
   11890:	01812403          	lw	s0,24(sp)
   11894:	01412483          	lw	s1,20(sp)
   11898:	01012903          	lw	s2,16(sp)
   1189c:	00c12983          	lw	s3,12(sp)
   118a0:	00812a03          	lw	s4,8(sp)
   118a4:	02010113          	addi	sp,sp,32
   118a8:	00008067          	ret
   118ac:	b0c1a783          	lw	a5,-1268(gp) # 81e84 <__morecore>
   118b0:	41200533          	neg	a0,s2
   118b4:	000780e7          	jalr	a5
   118b8:	c2c1a783          	lw	a5,-980(gp) # 81fa4 <__after_morecore_hook>
   118bc:	04079063          	bnez	a5,118fc <systrim.constprop.0+0xdc>
   118c0:	b0c1a783          	lw	a5,-1268(gp) # 81e84 <__morecore>
   118c4:	00000513          	li	a0,0
   118c8:	000780e7          	jalr	a5
   118cc:	fa050ee3          	beqz	a0,11888 <systrim.constprop.0+0x68>
   118d0:	40a987b3          	sub	a5,s3,a0
   118d4:	faa98ae3          	beq	s3,a0,11888 <systrim.constprop.0+0x68>
   118d8:	4944a703          	lw	a4,1172(s1)
   118dc:	0784a683          	lw	a3,120(s1)
   118e0:	40f40433          	sub	s0,s0,a5
   118e4:	40f707b3          	sub	a5,a4,a5
   118e8:	48f4aa23          	sw	a5,1172(s1)
   118ec:	00146413          	ori	s0,s0,1
   118f0:	0086a223          	sw	s0,4(a3)
   118f4:	00100513          	li	a0,1
   118f8:	f95ff06f          	j	1188c <systrim.constprop.0+0x6c>
   118fc:	000780e7          	jalr	a5
   11900:	fc1ff06f          	j	118c0 <systrim.constprop.0+0xa0>

00011904 <unlink_chunk.constprop.0>:
   11904:	00452683          	lw	a3,4(a0)
   11908:	ff010113          	addi	sp,sp,-16
   1190c:	00112623          	sw	ra,12(sp)
   11910:	ff86f793          	andi	a5,a3,-8
   11914:	00f50733          	add	a4,a0,a5
   11918:	00072703          	lw	a4,0(a4)
   1191c:	0ae79063          	bne	a5,a4,119bc <unlink_chunk.constprop.0+0xb8>
   11920:	00852783          	lw	a5,8(a0)
   11924:	00c52703          	lw	a4,12(a0)
   11928:	00c7a603          	lw	a2,12(a5)
   1192c:	06c51c63          	bne	a0,a2,119a4 <unlink_chunk.constprop.0+0xa0>
   11930:	00872603          	lw	a2,8(a4)
   11934:	06c51863          	bne	a0,a2,119a4 <unlink_chunk.constprop.0+0xa0>
   11938:	00e7a623          	sw	a4,12(a5)
   1193c:	00f72423          	sw	a5,8(a4)
   11940:	3ef00713          	li	a4,1007
   11944:	02d77a63          	bgeu	a4,a3,11978 <unlink_chunk.constprop.0+0x74>
   11948:	01052703          	lw	a4,16(a0)
   1194c:	02070663          	beqz	a4,11978 <unlink_chunk.constprop.0+0x74>
   11950:	01472683          	lw	a3,20(a4)
   11954:	06d51a63          	bne	a0,a3,119c8 <unlink_chunk.constprop.0+0xc4>
   11958:	01452683          	lw	a3,20(a0)
   1195c:	0106a603          	lw	a2,16(a3)
   11960:	06c51463          	bne	a0,a2,119c8 <unlink_chunk.constprop.0+0xc4>
   11964:	0107a603          	lw	a2,16(a5)
   11968:	00060e63          	beqz	a2,11984 <unlink_chunk.constprop.0+0x80>
   1196c:	00d72a23          	sw	a3,20(a4)
   11970:	01452783          	lw	a5,20(a0)
   11974:	00e7a823          	sw	a4,16(a5)
   11978:	00c12083          	lw	ra,12(sp)
   1197c:	01010113          	addi	sp,sp,16
   11980:	00008067          	ret
   11984:	02e50663          	beq	a0,a4,119b0 <unlink_chunk.constprop.0+0xac>
   11988:	00e7a823          	sw	a4,16(a5)
   1198c:	01052703          	lw	a4,16(a0)
   11990:	00d7aa23          	sw	a3,20(a5)
   11994:	00f72a23          	sw	a5,20(a4)
   11998:	01452703          	lw	a4,20(a0)
   1199c:	00f72823          	sw	a5,16(a4)
   119a0:	fd9ff06f          	j	11978 <unlink_chunk.constprop.0+0x74>
   119a4:	00064537          	lui	a0,0x64
   119a8:	91c50513          	addi	a0,a0,-1764 # 6391c <__PRETTY_FUNCTION__.1+0x3a0>
   119ac:	f10ff0ef          	jal	ra,110bc <malloc_printerr>
   119b0:	00f7aa23          	sw	a5,20(a5)
   119b4:	00f7a823          	sw	a5,16(a5)
   119b8:	fc1ff06f          	j	11978 <unlink_chunk.constprop.0+0x74>
   119bc:	00064537          	lui	a0,0x64
   119c0:	8fc50513          	addi	a0,a0,-1796 # 638fc <__PRETTY_FUNCTION__.1+0x380>
   119c4:	ef8ff0ef          	jal	ra,110bc <malloc_printerr>
   119c8:	00064537          	lui	a0,0x64
   119cc:	93c50513          	addi	a0,a0,-1732 # 6393c <__PRETTY_FUNCTION__.1+0x3c0>
   119d0:	eecff0ef          	jal	ra,110bc <malloc_printerr>

000119d4 <malloc_consolidate>:
   119d4:	fd010113          	addi	sp,sp,-48
   119d8:	01712623          	sw	s7,12(sp)
   119dc:	02112623          	sw	ra,44(sp)
   119e0:	02812423          	sw	s0,40(sp)
   119e4:	02912223          	sw	s1,36(sp)
   119e8:	03212023          	sw	s2,32(sp)
   119ec:	01312e23          	sw	s3,28(sp)
   119f0:	01412c23          	sw	s4,24(sp)
   119f4:	01512a23          	sw	s5,20(sp)
   119f8:	01612823          	sw	s6,16(sp)
   119fc:	01812423          	sw	s8,8(sp)
   11a00:	01912223          	sw	s9,4(sp)
   11a04:	00050b93          	mv	s7,a0
   11a08:	00850793          	addi	a5,a0,8
   11a0c:	0807a02f          	amoswap.w	zero,zero,(a5)
   11a10:	03850913          	addi	s2,a0,56
   11a14:	00c50c93          	addi	s9,a0,12
   11a18:	00000a13          	li	s4,0
   11a1c:	3ef00993          	li	s3,1007
   11a20:	000a0413          	mv	s0,s4
   11a24:	0c8ca42f          	amoswap.w.aq	s0,s0,(s9)
   11a28:	04041c63          	bnez	s0,11a80 <malloc_consolidate+0xac>
   11a2c:	004c8c93          	addi	s9,s9,4 # 81004 <mp_+0x4>
   11a30:	ff2c98e3          	bne	s9,s2,11a20 <malloc_consolidate+0x4c>
   11a34:	02c12083          	lw	ra,44(sp)
   11a38:	02812403          	lw	s0,40(sp)
   11a3c:	02412483          	lw	s1,36(sp)
   11a40:	02012903          	lw	s2,32(sp)
   11a44:	01c12983          	lw	s3,28(sp)
   11a48:	01812a03          	lw	s4,24(sp)
   11a4c:	01412a83          	lw	s5,20(sp)
   11a50:	01012b03          	lw	s6,16(sp)
   11a54:	00c12b83          	lw	s7,12(sp)
   11a58:	00812c03          	lw	s8,8(sp)
   11a5c:	00412c83          	lw	s9,4(sp)
   11a60:	03010113          	addi	sp,sp,48
   11a64:	00008067          	ret
   11a68:	016484b3          	add	s1,s1,s6
   11a6c:	0014e493          	ori	s1,s1,1
   11a70:	00942223          	sw	s1,4(s0)
   11a74:	028bac23          	sw	s0,56(s7)
   11a78:	fa0c0ae3          	beqz	s8,11a2c <malloc_consolidate+0x58>
   11a7c:	000c0413          	mv	s0,s8
   11a80:	00442703          	lw	a4,4(s0)
   11a84:	00375793          	srli	a5,a4,0x3
   11a88:	00178793          	addi	a5,a5,1
   11a8c:	00279793          	slli	a5,a5,0x2
   11a90:	00fb87b3          	add	a5,s7,a5
   11a94:	0afc9a63          	bne	s9,a5,11b48 <malloc_consolidate+0x174>
   11a98:	ff877493          	andi	s1,a4,-8
   11a9c:	00940ab3          	add	s5,s0,s1
   11aa0:	004aab03          	lw	s6,4(s5)
   11aa4:	00177713          	andi	a4,a4,1
   11aa8:	00842c03          	lw	s8,8(s0)
   11aac:	ff8b7b13          	andi	s6,s6,-8
   11ab0:	02071263          	bnez	a4,11ad4 <malloc_consolidate+0x100>
   11ab4:	00042783          	lw	a5,0(s0)
   11ab8:	40f40433          	sub	s0,s0,a5
   11abc:	00442703          	lw	a4,4(s0)
   11ac0:	00f484b3          	add	s1,s1,a5
   11ac4:	ff877713          	andi	a4,a4,-8
   11ac8:	06f71a63          	bne	a4,a5,11b3c <malloc_consolidate+0x168>
   11acc:	00040513          	mv	a0,s0
   11ad0:	e35ff0ef          	jal	ra,11904 <unlink_chunk.constprop.0>
   11ad4:	038ba783          	lw	a5,56(s7)
   11ad8:	f95788e3          	beq	a5,s5,11a68 <malloc_consolidate+0x94>
   11adc:	016a87b3          	add	a5,s5,s6
   11ae0:	0047a783          	lw	a5,4(a5)
   11ae4:	0017f793          	andi	a5,a5,1
   11ae8:	04078263          	beqz	a5,11b2c <malloc_consolidate+0x158>
   11aec:	004aa783          	lw	a5,4(s5)
   11af0:	ffe7f793          	andi	a5,a5,-2
   11af4:	00faa223          	sw	a5,4(s5)
   11af8:	040ba783          	lw	a5,64(s7)
   11afc:	048ba023          	sw	s0,64(s7)
   11b00:	0087a623          	sw	s0,12(a5)
   11b04:	0099f663          	bgeu	s3,s1,11b10 <malloc_consolidate+0x13c>
   11b08:	00042823          	sw	zero,16(s0)
   11b0c:	00042a23          	sw	zero,20(s0)
   11b10:	0014e713          	ori	a4,s1,1
   11b14:	00e42223          	sw	a4,4(s0)
   11b18:	01242623          	sw	s2,12(s0)
   11b1c:	00f42423          	sw	a5,8(s0)
   11b20:	00940433          	add	s0,s0,s1
   11b24:	00942023          	sw	s1,0(s0)
   11b28:	f51ff06f          	j	11a78 <malloc_consolidate+0xa4>
   11b2c:	000a8513          	mv	a0,s5
   11b30:	016484b3          	add	s1,s1,s6
   11b34:	dd1ff0ef          	jal	ra,11904 <unlink_chunk.constprop.0>
   11b38:	fc1ff06f          	j	11af8 <malloc_consolidate+0x124>
   11b3c:	00064537          	lui	a0,0x64
   11b40:	99450513          	addi	a0,a0,-1644 # 63994 <__PRETTY_FUNCTION__.1+0x418>
   11b44:	d78ff0ef          	jal	ra,110bc <malloc_printerr>
   11b48:	00064537          	lui	a0,0x64
   11b4c:	96850513          	addi	a0,a0,-1688 # 63968 <__PRETTY_FUNCTION__.1+0x3ec>
   11b50:	d6cff0ef          	jal	ra,110bc <malloc_printerr>

00011b54 <ptmalloc_init.part.0>:
   11b54:	00070797          	auipc	a5,0x70
   11b58:	2a07a783          	lw	a5,672(a5) # 81df4 <_GLOBAL_OFFSET_TABLE_+0x4>
   11b5c:	000816b7          	lui	a3,0x81
   11b60:	00068693          	mv	a3,a3
   11b64:	fe010113          	addi	sp,sp,-32
   11b68:	00812c23          	sw	s0,24(sp)
   11b6c:	004787b3          	add	a5,a5,tp
   11b70:	04068713          	addi	a4,a3,64 # 81040 <main_arena>
   11b74:	00112e23          	sw	ra,28(sp)
   11b78:	00e7a023          	sw	a4,0(a5)
   11b7c:	ae01ac23          	sw	zero,-1288(gp) # 81e70 <__libc_malloc_initialized>
   11b80:	07868793          	addi	a5,a3,120
   11b84:	47068713          	addi	a4,a3,1136
   11b88:	00f7a623          	sw	a5,12(a5)
   11b8c:	00f7a423          	sw	a5,8(a5)
   11b90:	00878793          	addi	a5,a5,8
   11b94:	fee79ae3          	bne	a5,a4,11b88 <ptmalloc_init.part.0+0x34>
   11b98:	04000713          	li	a4,64
   11b9c:	c2e1aa23          	sw	a4,-972(gp) # 81fac <global_max_fast>
   11ba0:	04868793          	addi	a5,a3,72
   11ba4:	0807a02f          	amoswap.w	zero,zero,(a5)
   11ba8:	00011637          	lui	a2,0x11
   11bac:	07868793          	addi	a5,a3,120
   11bb0:	00c10593          	addi	a1,sp,12
   11bb4:	2f460613          	addi	a2,a2,756 # 112f4 <_dl_tunable_set_mallopt_check>
   11bb8:	01200513          	li	a0,18
   11bbc:	06f6ac23          	sw	a5,120(a3)
   11bc0:	38d060ef          	jal	ra,1874c <__tunable_get_val>
   11bc4:	00011637          	lui	a2,0x11
   11bc8:	00c10593          	addi	a1,sp,12
   11bcc:	c5c60613          	addi	a2,a2,-932 # 10c5c <_dl_tunable_set_top_pad>
   11bd0:	00600513          	li	a0,6
   11bd4:	379060ef          	jal	ra,1874c <__tunable_get_val>
   11bd8:	00011637          	lui	a2,0x11
   11bdc:	00c10593          	addi	a1,sp,12
   11be0:	c7860613          	addi	a2,a2,-904 # 10c78 <_dl_tunable_set_perturb_byte>
   11be4:	00200513          	li	a0,2
   11be8:	365060ef          	jal	ra,1874c <__tunable_get_val>
   11bec:	00011637          	lui	a2,0x11
   11bf0:	00c10593          	addi	a1,sp,12
   11bf4:	c1860613          	addi	a2,a2,-1000 # 10c18 <_dl_tunable_set_mmap_threshold>
   11bf8:	00d00513          	li	a0,13
   11bfc:	351060ef          	jal	ra,1874c <__tunable_get_val>
   11c00:	00011637          	lui	a2,0x11
   11c04:	00c10593          	addi	a1,sp,12
   11c08:	c8460613          	addi	a2,a2,-892 # 10c84 <_dl_tunable_set_trim_threshold>
   11c0c:	00100513          	li	a0,1
   11c10:	33d060ef          	jal	ra,1874c <__tunable_get_val>
   11c14:	00011637          	lui	a2,0x11
   11c18:	00c10593          	addi	a1,sp,12
   11c1c:	c4060613          	addi	a2,a2,-960 # 10c40 <_dl_tunable_set_mmaps_max>
   11c20:	00800513          	li	a0,8
   11c24:	329060ef          	jal	ra,1874c <__tunable_get_val>
   11c28:	00011637          	lui	a2,0x11
   11c2c:	00c10593          	addi	a1,sp,12
   11c30:	ca060613          	addi	a2,a2,-864 # 10ca0 <_dl_tunable_set_arena_max>
   11c34:	00c00513          	li	a0,12
   11c38:	315060ef          	jal	ra,1874c <__tunable_get_val>
   11c3c:	00011637          	lui	a2,0x11
   11c40:	00c10593          	addi	a1,sp,12
   11c44:	cb060613          	addi	a2,a2,-848 # 10cb0 <_dl_tunable_set_arena_test>
   11c48:	00f00513          	li	a0,15
   11c4c:	301060ef          	jal	ra,1874c <__tunable_get_val>
   11c50:	00011637          	lui	a2,0x11
   11c54:	00c10593          	addi	a1,sp,12
   11c58:	cc060613          	addi	a2,a2,-832 # 10cc0 <_dl_tunable_set_tcache_max>
   11c5c:	01100513          	li	a0,17
   11c60:	2ed060ef          	jal	ra,1874c <__tunable_get_val>
   11c64:	00011637          	lui	a2,0x11
   11c68:	00c10593          	addi	a1,sp,12
   11c6c:	cf460613          	addi	a2,a2,-780 # 10cf4 <_dl_tunable_set_tcache_count>
   11c70:	00e00513          	li	a0,14
   11c74:	2d9060ef          	jal	ra,1874c <__tunable_get_val>
   11c78:	00011637          	lui	a2,0x11
   11c7c:	00c10593          	addi	a1,sp,12
   11c80:	d0460613          	addi	a2,a2,-764 # 10d04 <_dl_tunable_set_tcache_unsorted_limit>
   11c84:	00a00513          	li	a0,10
   11c88:	2c5060ef          	jal	ra,1874c <__tunable_get_val>
   11c8c:	00100793          	li	a5,1
   11c90:	01c12083          	lw	ra,28(sp)
   11c94:	aef1ac23          	sw	a5,-1288(gp) # 81e70 <__libc_malloc_initialized>
   11c98:	01812403          	lw	s0,24(sp)
   11c9c:	02010113          	addi	sp,sp,32
   11ca0:	00008067          	ret

00011ca4 <munmap_chunk>:
   11ca4:	00452783          	lw	a5,4(a0)
   11ca8:	fe010113          	addi	sp,sp,-32
   11cac:	00112e23          	sw	ra,28(sp)
   11cb0:	0027f713          	andi	a4,a5,2
   11cb4:	06070463          	beqz	a4,11d1c <munmap_chunk+0x78>
   11cb8:	b301a683          	lw	a3,-1232(gp) # 81ea8 <_dl_pagesize>
   11cbc:	00052583          	lw	a1,0(a0)
   11cc0:	ff87f793          	andi	a5,a5,-8
   11cc4:	fff68693          	addi	a3,a3,-1
   11cc8:	00850713          	addi	a4,a0,8
   11ccc:	00d77733          	and	a4,a4,a3
   11cd0:	40b50533          	sub	a0,a0,a1
   11cd4:	00b785b3          	add	a1,a5,a1
   11cd8:	00b567b3          	or	a5,a0,a1
   11cdc:	fff70613          	addi	a2,a4,-1
   11ce0:	00d7f7b3          	and	a5,a5,a3
   11ce4:	00e67733          	and	a4,a2,a4
   11ce8:	00e7e7b3          	or	a5,a5,a4
   11cec:	08079c63          	bnez	a5,11d84 <munmap_chunk+0xe0>
   11cf0:	000817b7          	lui	a5,0x81
   11cf4:	00078793          	mv	a5,a5
   11cf8:	fff00713          	li	a4,-1
   11cfc:	01478693          	addi	a3,a5,20 # 81014 <mp_+0x14>
   11d00:	04e6a02f          	amoadd.w.aq	zero,a4,(a3)
   11d04:	40b00733          	neg	a4,a1
   11d08:	02478793          	addi	a5,a5,36
   11d0c:	04e7a02f          	amoadd.w.aq	zero,a4,(a5)
   11d10:	01c12083          	lw	ra,28(sp)
   11d14:	02010113          	addi	sp,sp,32
   11d18:	4590506f          	j	17970 <__munmap>
   11d1c:	b141a603          	lw	a2,-1260(gp) # 81e8c <__progname>
   11d20:	00064783          	lbu	a5,0(a2)
   11d24:	04079a63          	bnez	a5,11d78 <munmap_chunk+0xd4>
   11d28:	000676b7          	lui	a3,0x67
   11d2c:	a9c68693          	addi	a3,a3,-1380 # 66a9c <expected2.3+0x8>
   11d30:	000638b7          	lui	a7,0x63
   11d34:	00064537          	lui	a0,0x64
   11d38:	9cc50513          	addi	a0,a0,-1588 # 639cc <__PRETTY_FUNCTION__.1+0x450>
   11d3c:	00064837          	lui	a6,0x64
   11d40:	000017b7          	lui	a5,0x1
   11d44:	00064737          	lui	a4,0x64
   11d48:	000635b7          	lui	a1,0x63
   11d4c:	59088893          	addi	a7,a7,1424 # 63590 <__PRETTY_FUNCTION__.1+0x14>
   11d50:	61480813          	addi	a6,a6,1556 # 64614 <__PRETTY_FUNCTION__.9>
   11d54:	b0778793          	addi	a5,a5,-1273 # b07 <catch_hook+0xadb>
   11d58:	9c070713          	addi	a4,a4,-1600 # 639c0 <__PRETTY_FUNCTION__.1+0x444>
   11d5c:	59458593          	addi	a1,a1,1428 # 63594 <__PRETTY_FUNCTION__.1+0x18>
   11d60:	00a12023          	sw	a0,0(sp)
   11d64:	00000513          	li	a0,0
   11d68:	7ed130ef          	jal	ra,25d54 <__fxprintf>
   11d6c:	b7c1a503          	lw	a0,-1156(gp) # 81ef4 <_IO_stderr>
   11d70:	3c4140ef          	jal	ra,26134 <_IO_fflush>
   11d74:	c44fe0ef          	jal	ra,101b8 <abort>
   11d78:	000638b7          	lui	a7,0x63
   11d7c:	59088693          	addi	a3,a7,1424 # 63590 <__PRETTY_FUNCTION__.1+0x14>
   11d80:	fb5ff06f          	j	11d34 <munmap_chunk+0x90>
   11d84:	00064537          	lui	a0,0x64
   11d88:	9e450513          	addi	a0,a0,-1564 # 639e4 <__PRETTY_FUNCTION__.1+0x468>
   11d8c:	b30ff0ef          	jal	ra,110bc <malloc_printerr>

00011d90 <arena_get2.part.0>:
   11d90:	fc010113          	addi	sp,sp,-64
   11d94:	02912a23          	sw	s1,52(sp)
   11d98:	c101a783          	lw	a5,-1008(gp) # 81f88 <narenas_limit.13>
   11d9c:	02812c23          	sw	s0,56(sp)
   11da0:	03212823          	sw	s2,48(sp)
   11da4:	02112e23          	sw	ra,60(sp)
   11da8:	03312623          	sw	s3,44(sp)
   11dac:	03412423          	sw	s4,40(sp)
   11db0:	afc1a703          	lw	a4,-1284(gp) # 81e74 <narenas>
   11db4:	00050413          	mv	s0,a0
   11db8:	00079c63          	bnez	a5,11dd0 <arena_get2.part.0+0x40>
   11dbc:	000816b7          	lui	a3,0x81
   11dc0:	00068693          	mv	a3,a3
   11dc4:	0106a783          	lw	a5,16(a3) # 81010 <mp_+0x10>
   11dc8:	10078a63          	beqz	a5,11edc <arena_get2.part.0+0x14c>
   11dcc:	c0f1a823          	sw	a5,-1008(gp) # 81f88 <narenas_limit.13>
   11dd0:	fff78793          	addi	a5,a5,-1
   11dd4:	1ee7f463          	bgeu	a5,a4,11fbc <arena_get2.part.0+0x22c>
   11dd8:	c0c1a403          	lw	s0,-1012(gp) # 81f84 <next_to_use.16>
   11ddc:	0e040263          	beqz	s0,11ec0 <arena_get2.part.0+0x130>
   11de0:	00100713          	li	a4,1
   11de4:	100427af          	lr.w	a5,(s0)
   11de8:	00079663          	bnez	a5,11df4 <arena_get2.part.0+0x64>
   11dec:	1ce426af          	sc.w.aq	a3,a4,(s0)
   11df0:	fe069ae3          	bnez	a3,11de4 <arena_get2.part.0+0x54>
   11df4:	1e079863          	bnez	a5,11fe4 <arena_get2.part.0+0x254>
   11df8:	00070997          	auipc	s3,0x70
   11dfc:	ffc9a983          	lw	s3,-4(s3) # 81df4 <_GLOBAL_OFFSET_TABLE_+0x4>
   11e00:	00100713          	li	a4,1
   11e04:	004987b3          	add	a5,s3,tp
   11e08:	0007a903          	lw	s2,0(a5)
   11e0c:	c2418693          	addi	a3,gp,-988 # 81f9c <free_list_lock>
   11e10:	1006a7af          	lr.w	a5,(a3)
   11e14:	00079663          	bnez	a5,11e20 <arena_get2.part.0+0x90>
   11e18:	1ce6a62f          	sc.w.aq	a2,a4,(a3)
   11e1c:	fe061ae3          	bnez	a2,11e10 <arena_get2.part.0+0x80>
   11e20:	12079a63          	bnez	a5,11f54 <arena_get2.part.0+0x1c4>
   11e24:	00090a63          	beqz	s2,11e38 <arena_get2.part.0+0xa8>
   11e28:	45092783          	lw	a5,1104(s2)
   11e2c:	0c078c63          	beqz	a5,11f04 <arena_get2.part.0+0x174>
   11e30:	fff78793          	addi	a5,a5,-1
   11e34:	44f92823          	sw	a5,1104(s2)
   11e38:	c201a783          	lw	a5,-992(gp) # 81f98 <free_list>
   11e3c:	12078463          	beqz	a5,11f64 <arena_get2.part.0+0x1d4>
   11e40:	4507a683          	lw	a3,1104(a5)
   11e44:	c2018713          	addi	a4,gp,-992 # 81f98 <free_list>
   11e48:	02069063          	bnez	a3,11e68 <arena_get2.part.0+0xd8>
   11e4c:	44c7a683          	lw	a3,1100(a5)
   11e50:	10f40863          	beq	s0,a5,11f60 <arena_get2.part.0+0x1d0>
   11e54:	44c78713          	addi	a4,a5,1100
   11e58:	10068663          	beqz	a3,11f64 <arena_get2.part.0+0x1d4>
   11e5c:	00068793          	mv	a5,a3
   11e60:	4507a683          	lw	a3,1104(a5)
   11e64:	fe0684e3          	beqz	a3,11e4c <arena_get2.part.0+0xbc>
   11e68:	b141a603          	lw	a2,-1260(gp) # 81e8c <__progname>
   11e6c:	00064783          	lbu	a5,0(a2)
   11e70:	06079063          	bnez	a5,11ed0 <arena_get2.part.0+0x140>
   11e74:	000676b7          	lui	a3,0x67
   11e78:	a9c68693          	addi	a3,a3,-1380 # 66a9c <expected2.3+0x8>
   11e7c:	000638b7          	lui	a7,0x63
   11e80:	00064837          	lui	a6,0x64
   11e84:	00064737          	lui	a4,0x64
   11e88:	000635b7          	lui	a1,0x63
   11e8c:	00064537          	lui	a0,0x64
   11e90:	59088893          	addi	a7,a7,1424 # 63590 <__PRETTY_FUNCTION__.1+0x14>
   11e94:	5ac80813          	addi	a6,a6,1452 # 645ac <__PRETTY_FUNCTION__.17>
   11e98:	31b00793          	li	a5,795
   11e9c:	a0470713          	addi	a4,a4,-1532 # 63a04 <__PRETTY_FUNCTION__.1+0x488>
   11ea0:	59458593          	addi	a1,a1,1428 # 63594 <__PRETTY_FUNCTION__.1+0x18>
   11ea4:	a3450513          	addi	a0,a0,-1484 # 63a34 <__PRETTY_FUNCTION__.1+0x4b8>
   11ea8:	00a12023          	sw	a0,0(sp)
   11eac:	00000513          	li	a0,0
   11eb0:	6a5130ef          	jal	ra,25d54 <__fxprintf>
   11eb4:	b7c1a503          	lw	a0,-1156(gp) # 81ef4 <_IO_stderr>
   11eb8:	27c140ef          	jal	ra,26134 <_IO_fflush>
   11ebc:	afcfe0ef          	jal	ra,101b8 <abort>
   11ec0:	00081437          	lui	s0,0x81
   11ec4:	04040413          	addi	s0,s0,64 # 81040 <main_arena>
   11ec8:	c081a623          	sw	s0,-1012(gp) # 81f84 <next_to_use.16>
   11ecc:	f15ff06f          	j	11de0 <arena_get2.part.0+0x50>
   11ed0:	000638b7          	lui	a7,0x63
   11ed4:	59088693          	addi	a3,a7,1424 # 63590 <__PRETTY_FUNCTION__.1+0x14>
   11ed8:	fa9ff06f          	j	11e80 <arena_get2.part.0+0xf0>
   11edc:	00c6a683          	lw	a3,12(a3)
   11ee0:	eee6f8e3          	bgeu	a3,a4,11dd0 <arena_get2.part.0+0x40>
   11ee4:	00b12e23          	sw	a1,28(sp)
   11ee8:	48d050ef          	jal	ra,17b74 <__get_nprocs>
   11eec:	01c12583          	lw	a1,28(sp)
   11ef0:	12a05463          	blez	a0,12018 <arena_get2.part.0+0x288>
   11ef4:	00151793          	slli	a5,a0,0x1
   11ef8:	afc1a703          	lw	a4,-1284(gp) # 81e74 <narenas>
   11efc:	c0f1a823          	sw	a5,-1008(gp) # 81f88 <narenas_limit.13>
   11f00:	ed1ff06f          	j	11dd0 <arena_get2.part.0+0x40>
   11f04:	b141a603          	lw	a2,-1260(gp) # 81e8c <__progname>
   11f08:	00064783          	lbu	a5,0(a2)
   11f0c:	02079e63          	bnez	a5,11f48 <arena_get2.part.0+0x1b8>
   11f10:	000676b7          	lui	a3,0x67
   11f14:	a9c68693          	addi	a3,a3,-1380 # 66a9c <expected2.3+0x8>
   11f18:	000638b7          	lui	a7,0x63
   11f1c:	00064837          	lui	a6,0x64
   11f20:	00064737          	lui	a4,0x64
   11f24:	000635b7          	lui	a1,0x63
   11f28:	00064537          	lui	a0,0x64
   11f2c:	59088893          	addi	a7,a7,1424 # 63590 <__PRETTY_FUNCTION__.1+0x14>
   11f30:	5c480813          	addi	a6,a6,1476 # 645c4 <__PRETTY_FUNCTION__.15>
   11f34:	2a300793          	li	a5,675
   11f38:	a0470713          	addi	a4,a4,-1532 # 63a04 <__PRETTY_FUNCTION__.1+0x488>
   11f3c:	59458593          	addi	a1,a1,1428 # 63594 <__PRETTY_FUNCTION__.1+0x18>
   11f40:	a0c50513          	addi	a0,a0,-1524 # 63a0c <__PRETTY_FUNCTION__.1+0x490>
   11f44:	f65ff06f          	j	11ea8 <arena_get2.part.0+0x118>
   11f48:	000638b7          	lui	a7,0x63
   11f4c:	59088693          	addi	a3,a7,1424 # 63590 <__PRETTY_FUNCTION__.1+0x14>
   11f50:	fcdff06f          	j	11f1c <arena_get2.part.0+0x18c>
   11f54:	c2418513          	addi	a0,gp,-988 # 81f9c <free_list_lock>
   11f58:	1c8060ef          	jal	ra,18120 <__lll_lock_wait_private>
   11f5c:	ec9ff06f          	j	11e24 <arena_get2.part.0+0x94>
   11f60:	00d72023          	sw	a3,0(a4)
   11f64:	45042783          	lw	a5,1104(s0)
   11f68:	c2418713          	addi	a4,gp,-988 # 81f9c <free_list_lock>
   11f6c:	00178793          	addi	a5,a5,1
   11f70:	44f42823          	sw	a5,1104(s0)
   11f74:	00000793          	li	a5,0
   11f78:	0f50000f          	fence	iorw,ow
   11f7c:	08f727af          	amoswap.w	a5,a5,(a4)
   11f80:	00100713          	li	a4,1
   11f84:	0af74063          	blt	a4,a5,12024 <arena_get2.part.0+0x294>
   11f88:	44842783          	lw	a5,1096(s0)
   11f8c:	004989b3          	add	s3,s3,tp
   11f90:	0089a023          	sw	s0,0(s3)
   11f94:	c0f1a623          	sw	a5,-1012(gp) # 81f84 <next_to_use.16>
   11f98:	03c12083          	lw	ra,60(sp)
   11f9c:	00040513          	mv	a0,s0
   11fa0:	03812403          	lw	s0,56(sp)
   11fa4:	03412483          	lw	s1,52(sp)
   11fa8:	03012903          	lw	s2,48(sp)
   11fac:	02c12983          	lw	s3,44(sp)
   11fb0:	02812a03          	lw	s4,40(sp)
   11fb4:	04010113          	addi	sp,sp,64
   11fb8:	00008067          	ret
   11fbc:	00170693          	addi	a3,a4,1
   11fc0:	afc18613          	addi	a2,gp,-1284 # 81e74 <narenas>
   11fc4:	100627af          	lr.w	a5,(a2)
   11fc8:	00e79663          	bne	a5,a4,11fd4 <arena_get2.part.0+0x244>
   11fcc:	1cd6252f          	sc.w.aq	a0,a3,(a2)
   11fd0:	fe051ae3          	bnez	a0,11fc4 <arena_get2.part.0+0x234>
   11fd4:	06e78663          	beq	a5,a4,12040 <arena_get2.part.0+0x2b0>
   11fd8:	afc1a703          	lw	a4,-1284(gp) # 81e74 <narenas>
   11fdc:	c101a783          	lw	a5,-1008(gp) # 81f88 <narenas_limit.13>
   11fe0:	df1ff06f          	j	11dd0 <arena_get2.part.0+0x40>
   11fe4:	44842403          	lw	s0,1096(s0)
   11fe8:	c0c1a783          	lw	a5,-1012(gp) # 81f84 <next_to_use.16>
   11fec:	def41ce3          	bne	s0,a5,11de4 <arena_get2.part.0+0x54>
   11ff0:	1e858263          	beq	a1,s0,121d4 <arena_get2.part.0+0x444>
   11ff4:	00100713          	li	a4,1
   11ff8:	100427af          	lr.w	a5,(s0)
   11ffc:	00079663          	bnez	a5,12008 <arena_get2.part.0+0x278>
   12000:	1ce426af          	sc.w.aq	a3,a4,(s0)
   12004:	fe069ae3          	bnez	a3,11ff8 <arena_get2.part.0+0x268>
   12008:	de0788e3          	beqz	a5,11df8 <arena_get2.part.0+0x68>
   1200c:	00040513          	mv	a0,s0
   12010:	110060ef          	jal	ra,18120 <__lll_lock_wait_private>
   12014:	de5ff06f          	j	11df8 <arena_get2.part.0+0x68>
   12018:	afc1a703          	lw	a4,-1284(gp) # 81e74 <narenas>
   1201c:	00400793          	li	a5,4
   12020:	dadff06f          	j	11dcc <arena_get2.part.0+0x3c>
   12024:	06200893          	li	a7,98
   12028:	c2418513          	addi	a0,gp,-988 # 81f9c <free_list_lock>
   1202c:	08100593          	li	a1,129
   12030:	00100613          	li	a2,1
   12034:	00000693          	li	a3,0
   12038:	00000073          	ecall
   1203c:	f4dff06f          	j	11f88 <arena_get2.part.0+0x1f8>
   12040:	000819b7          	lui	s3,0x81
   12044:	00098993          	mv	s3,s3
   12048:	0049a583          	lw	a1,4(s3) # 81004 <mp_+0x4>
   1204c:	48440513          	addi	a0,s0,1156
   12050:	8f4ff0ef          	jal	ra,11144 <new_heap>
   12054:	00050493          	mv	s1,a0
   12058:	14050a63          	beqz	a0,121ac <arena_get2.part.0+0x41c>
   1205c:	01848413          	addi	s0,s1,24
   12060:	0084a023          	sw	s0,0(s1)
   12064:	05048793          	addi	a5,s1,80
   12068:	44848713          	addi	a4,s1,1096
   1206c:	00f7a623          	sw	a5,12(a5)
   12070:	00f7a423          	sw	a5,8(a5)
   12074:	00878793          	addi	a5,a5,8
   12078:	fef71ae3          	bne	a4,a5,1206c <arena_get2.part.0+0x2dc>
   1207c:	04098793          	addi	a5,s3,64
   12080:	14f40e63          	beq	s0,a5,121dc <arena_get2.part.0+0x44c>
   12084:	01c4a783          	lw	a5,28(s1)
   12088:	0027e793          	ori	a5,a5,2
   1208c:	00f4ae23          	sw	a5,28(s1)
   12090:	02048793          	addi	a5,s1,32
   12094:	0807a02f          	amoswap.w	zero,zero,(a5)
   12098:	0084a783          	lw	a5,8(s1)
   1209c:	00100693          	li	a3,1
   120a0:	47c48713          	addi	a4,s1,1148
   120a4:	46d4a423          	sw	a3,1128(s1)
   120a8:	46f4a823          	sw	a5,1136(s1)
   120ac:	46f4a623          	sw	a5,1132(s1)
   120b0:	00f77713          	andi	a4,a4,15
   120b4:	47448693          	addi	a3,s1,1140
   120b8:	00070663          	beqz	a4,120c4 <arena_get2.part.0+0x334>
   120bc:	40e686b3          	sub	a3,a3,a4
   120c0:	01068693          	addi	a3,a3,16
   120c4:	00070717          	auipc	a4,0x70
   120c8:	d3072703          	lw	a4,-720(a4) # 81df4 <_GLOBAL_OFFSET_TABLE_+0x4>
   120cc:	00f487b3          	add	a5,s1,a5
   120d0:	40d787b3          	sub	a5,a5,a3
   120d4:	00470733          	add	a4,a4,tp
   120d8:	00072a03          	lw	s4,0(a4)
   120dc:	04d4a823          	sw	a3,80(s1)
   120e0:	0017e793          	ori	a5,a5,1
   120e4:	00f6a223          	sw	a5,4(a3)
   120e8:	00872023          	sw	s0,0(a4)
   120ec:	0004ac23          	sw	zero,24(s1)
   120f0:	00100713          	li	a4,1
   120f4:	c1c18693          	addi	a3,gp,-996 # 81f94 <list_lock>
   120f8:	1006a7af          	lr.w	a5,(a3)
   120fc:	00079663          	bnez	a5,12108 <arena_get2.part.0+0x378>
   12100:	1ce6a62f          	sc.w.aq	a2,a4,(a3)
   12104:	fe061ae3          	bnez	a2,120f8 <arena_get2.part.0+0x368>
   12108:	0e079063          	bnez	a5,121e8 <arena_get2.part.0+0x458>
   1210c:	4889a783          	lw	a5,1160(s3)
   12110:	46f4a023          	sw	a5,1120(s1)
   12114:	0ff0000f          	fence
   12118:	00000793          	li	a5,0
   1211c:	4889a423          	sw	s0,1160(s3)
   12120:	c1c18713          	addi	a4,gp,-996 # 81f94 <list_lock>
   12124:	0f50000f          	fence	iorw,ow
   12128:	08f727af          	amoswap.w	a5,a5,(a4)
   1212c:	00100713          	li	a4,1
   12130:	0cf74263          	blt	a4,a5,121f4 <arena_get2.part.0+0x464>
   12134:	00100713          	li	a4,1
   12138:	c2418693          	addi	a3,gp,-988 # 81f9c <free_list_lock>
   1213c:	1006a7af          	lr.w	a5,(a3)
   12140:	00079663          	bnez	a5,1214c <arena_get2.part.0+0x3bc>
   12144:	1ce6a62f          	sc.w.aq	a2,a4,(a3)
   12148:	fe061ae3          	bnez	a2,1213c <arena_get2.part.0+0x3ac>
   1214c:	04079a63          	bnez	a5,121a0 <arena_get2.part.0+0x410>
   12150:	000a0a63          	beqz	s4,12164 <arena_get2.part.0+0x3d4>
   12154:	450a2783          	lw	a5,1104(s4)
   12158:	da0786e3          	beqz	a5,11f04 <arena_get2.part.0+0x174>
   1215c:	fff78793          	addi	a5,a5,-1
   12160:	44fa2823          	sw	a5,1104(s4)
   12164:	00000793          	li	a5,0
   12168:	c2418713          	addi	a4,gp,-988 # 81f9c <free_list_lock>
   1216c:	0f50000f          	fence	iorw,ow
   12170:	08f727af          	amoswap.w	a5,a5,(a4)
   12174:	00100713          	li	a4,1
   12178:	08f74c63          	blt	a4,a5,12210 <arena_get2.part.0+0x480>
   1217c:	00100713          	li	a4,1
   12180:	100427af          	lr.w	a5,(s0)
   12184:	00079663          	bnez	a5,12190 <arena_get2.part.0+0x400>
   12188:	1ce426af          	sc.w.aq	a3,a4,(s0)
   1218c:	fe069ae3          	bnez	a3,12180 <arena_get2.part.0+0x3f0>
   12190:	e00784e3          	beqz	a5,11f98 <arena_get2.part.0+0x208>
   12194:	00040513          	mv	a0,s0
   12198:	789050ef          	jal	ra,18120 <__lll_lock_wait_private>
   1219c:	dfdff06f          	j	11f98 <arena_get2.part.0+0x208>
   121a0:	c2418513          	addi	a0,gp,-988 # 81f9c <free_list_lock>
   121a4:	77d050ef          	jal	ra,18120 <__lll_lock_wait_private>
   121a8:	fa9ff06f          	j	12150 <arena_get2.part.0+0x3c0>
   121ac:	0049a583          	lw	a1,4(s3)
   121b0:	48400513          	li	a0,1156
   121b4:	f91fe0ef          	jal	ra,11144 <new_heap>
   121b8:	00050493          	mv	s1,a0
   121bc:	ea0510e3          	bnez	a0,1205c <arena_get2.part.0+0x2cc>
   121c0:	fff00793          	li	a5,-1
   121c4:	afc18713          	addi	a4,gp,-1284 # 81e74 <narenas>
   121c8:	04f7202f          	amoadd.w.aq	zero,a5,(a4)
   121cc:	00000413          	li	s0,0
   121d0:	dc9ff06f          	j	11f98 <arena_get2.part.0+0x208>
   121d4:	44842403          	lw	s0,1096(s0)
   121d8:	e1dff06f          	j	11ff4 <arena_get2.part.0+0x264>
   121dc:	04000713          	li	a4,64
   121e0:	c2e1aa23          	sw	a4,-972(gp) # 81fac <global_max_fast>
   121e4:	eadff06f          	j	12090 <arena_get2.part.0+0x300>
   121e8:	c1c18513          	addi	a0,gp,-996 # 81f94 <list_lock>
   121ec:	735050ef          	jal	ra,18120 <__lll_lock_wait_private>
   121f0:	f1dff06f          	j	1210c <arena_get2.part.0+0x37c>
   121f4:	06200893          	li	a7,98
   121f8:	c1c18513          	addi	a0,gp,-996 # 81f94 <list_lock>
   121fc:	08100593          	li	a1,129
   12200:	00100613          	li	a2,1
   12204:	00000693          	li	a3,0
   12208:	00000073          	ecall
   1220c:	f29ff06f          	j	12134 <arena_get2.part.0+0x3a4>
   12210:	06200893          	li	a7,98
   12214:	c2418513          	addi	a0,gp,-988 # 81f9c <free_list_lock>
   12218:	08100593          	li	a1,129
   1221c:	00100613          	li	a2,1
   12220:	00000693          	li	a3,0
   12224:	00000073          	ecall
   12228:	f55ff06f          	j	1217c <arena_get2.part.0+0x3ec>

0001222c <mremap_chunk>:
   1222c:	00452783          	lw	a5,4(a0)
   12230:	fe010113          	addi	sp,sp,-32
   12234:	00112e23          	sw	ra,28(sp)
   12238:	00812c23          	sw	s0,24(sp)
   1223c:	00912a23          	sw	s1,20(sp)
   12240:	01212823          	sw	s2,16(sp)
   12244:	0027f713          	andi	a4,a5,2
   12248:	0c070663          	beqz	a4,12314 <mremap_chunk+0xe8>
   1224c:	b301a603          	lw	a2,-1232(gp) # 81ea8 <_dl_pagesize>
   12250:	00052903          	lw	s2,0(a0)
   12254:	ff87f413          	andi	s0,a5,-8
   12258:	fff60813          	addi	a6,a2,-1
   1225c:	00850713          	addi	a4,a0,8
   12260:	01077733          	and	a4,a4,a6
   12264:	412508b3          	sub	a7,a0,s2
   12268:	012404b3          	add	s1,s0,s2
   1226c:	0098e7b3          	or	a5,a7,s1
   12270:	fff70693          	addi	a3,a4,-1
   12274:	0107f7b3          	and	a5,a5,a6
   12278:	00e6f733          	and	a4,a3,a4
   1227c:	00e7e7b3          	or	a5,a5,a4
   12280:	14079263          	bnez	a5,123c4 <mremap_chunk+0x198>
   12284:	00360413          	addi	s0,a2,3
   12288:	00b405b3          	add	a1,s0,a1
   1228c:	01258433          	add	s0,a1,s2
   12290:	40c00633          	neg	a2,a2
   12294:	00867433          	and	s0,a2,s0
   12298:	06848263          	beq	s1,s0,122fc <mremap_chunk+0xd0>
   1229c:	00100693          	li	a3,1
   122a0:	00040613          	mv	a2,s0
   122a4:	00048593          	mv	a1,s1
   122a8:	00088513          	mv	a0,a7
   122ac:	5f5050ef          	jal	ra,180a0 <__mremap>
   122b0:	fff00793          	li	a5,-1
   122b4:	16f50e63          	beq	a0,a5,12430 <mremap_chunk+0x204>
   122b8:	01250533          	add	a0,a0,s2
   122bc:	00850793          	addi	a5,a0,8
   122c0:	00f7f793          	andi	a5,a5,15
   122c4:	10079663          	bnez	a5,123d0 <mremap_chunk+0x1a4>
   122c8:	00052783          	lw	a5,0(a0)
   122cc:	0b279863          	bne	a5,s2,1237c <mremap_chunk+0x150>
   122d0:	40f407b3          	sub	a5,s0,a5
   122d4:	0027e793          	ori	a5,a5,2
   122d8:	00f52223          	sw	a5,4(a0)
   122dc:	000817b7          	lui	a5,0x81
   122e0:	00078793          	mv	a5,a5
   122e4:	40940433          	sub	s0,s0,s1
   122e8:	02478713          	addi	a4,a5,36 # 81024 <mp_+0x24>
   122ec:	0487262f          	amoadd.w.aq	a2,s0,(a4)
   122f0:	00c40433          	add	s0,s0,a2
   122f4:	02878793          	addi	a5,a5,40
   122f8:	e487a42f          	amomaxu.w.aq	s0,s0,(a5)
   122fc:	01c12083          	lw	ra,28(sp)
   12300:	01812403          	lw	s0,24(sp)
   12304:	01412483          	lw	s1,20(sp)
   12308:	01012903          	lw	s2,16(sp)
   1230c:	02010113          	addi	sp,sp,32
   12310:	00008067          	ret
   12314:	b141a603          	lw	a2,-1260(gp) # 81e8c <__progname>
   12318:	00064783          	lbu	a5,0(a2)
   1231c:	04079a63          	bnez	a5,12370 <mremap_chunk+0x144>
   12320:	000676b7          	lui	a3,0x67
   12324:	a9c68693          	addi	a3,a3,-1380 # 66a9c <expected2.3+0x8>
   12328:	000638b7          	lui	a7,0x63
   1232c:	00064837          	lui	a6,0x64
   12330:	000017b7          	lui	a5,0x1
   12334:	00064737          	lui	a4,0x64
   12338:	000635b7          	lui	a1,0x63
   1233c:	00064537          	lui	a0,0x64
   12340:	59088893          	addi	a7,a7,1424 # 63590 <__PRETTY_FUNCTION__.1+0x14>
   12344:	60480813          	addi	a6,a6,1540 # 64604 <__PRETTY_FUNCTION__.10>
   12348:	b2d78793          	addi	a5,a5,-1235 # b2d <catch_hook+0xb01>
   1234c:	9c070713          	addi	a4,a4,-1600 # 639c0 <__PRETTY_FUNCTION__.1+0x444>
   12350:	59458593          	addi	a1,a1,1428 # 63594 <__PRETTY_FUNCTION__.1+0x18>
   12354:	9cc50513          	addi	a0,a0,-1588 # 639cc <__PRETTY_FUNCTION__.1+0x450>
   12358:	00a12023          	sw	a0,0(sp)
   1235c:	00000513          	li	a0,0
   12360:	1f5130ef          	jal	ra,25d54 <__fxprintf>
   12364:	b7c1a503          	lw	a0,-1156(gp) # 81ef4 <_IO_stderr>
   12368:	5cd130ef          	jal	ra,26134 <_IO_fflush>
   1236c:	e4dfd0ef          	jal	ra,101b8 <abort>
   12370:	000638b7          	lui	a7,0x63
   12374:	59088693          	addi	a3,a7,1424 # 63590 <__PRETTY_FUNCTION__.1+0x14>
   12378:	fb5ff06f          	j	1232c <mremap_chunk+0x100>
   1237c:	b141a603          	lw	a2,-1260(gp) # 81e8c <__progname>
   12380:	00064783          	lbu	a5,0(a2)
   12384:	0a079063          	bnez	a5,12424 <mremap_chunk+0x1f8>
   12388:	000676b7          	lui	a3,0x67
   1238c:	a9c68693          	addi	a3,a3,-1380 # 66a9c <expected2.3+0x8>
   12390:	000638b7          	lui	a7,0x63
   12394:	00064837          	lui	a6,0x64
   12398:	000017b7          	lui	a5,0x1
   1239c:	00064737          	lui	a4,0x64
   123a0:	000635b7          	lui	a1,0x63
   123a4:	00064537          	lui	a0,0x64
   123a8:	59088893          	addi	a7,a7,1424 # 63590 <__PRETTY_FUNCTION__.1+0x14>
   123ac:	60480813          	addi	a6,a6,1540 # 64604 <__PRETTY_FUNCTION__.10>
   123b0:	b4778793          	addi	a5,a5,-1209 # b47 <catch_hook+0xb1b>
   123b4:	9c070713          	addi	a4,a4,-1600 # 639c0 <__PRETTY_FUNCTION__.1+0x444>
   123b8:	59458593          	addi	a1,a1,1428 # 63594 <__PRETTY_FUNCTION__.1+0x18>
   123bc:	a8c50513          	addi	a0,a0,-1396 # 63a8c <__PRETTY_FUNCTION__.1+0x510>
   123c0:	f99ff06f          	j	12358 <mremap_chunk+0x12c>
   123c4:	00064537          	lui	a0,0x64
   123c8:	a5050513          	addi	a0,a0,-1456 # 63a50 <__PRETTY_FUNCTION__.1+0x4d4>
   123cc:	cf1fe0ef          	jal	ra,110bc <malloc_printerr>
   123d0:	b141a603          	lw	a2,-1260(gp) # 81e8c <__progname>
   123d4:	00064783          	lbu	a5,0(a2)
   123d8:	04079063          	bnez	a5,12418 <mremap_chunk+0x1ec>
   123dc:	000676b7          	lui	a3,0x67
   123e0:	a9c68693          	addi	a3,a3,-1380 # 66a9c <expected2.3+0x8>
   123e4:	000638b7          	lui	a7,0x63
   123e8:	00064837          	lui	a6,0x64
   123ec:	000017b7          	lui	a5,0x1
   123f0:	00064737          	lui	a4,0x64
   123f4:	000635b7          	lui	a1,0x63
   123f8:	00064537          	lui	a0,0x64
   123fc:	59088893          	addi	a7,a7,1424 # 63590 <__PRETTY_FUNCTION__.1+0x14>
   12400:	60480813          	addi	a6,a6,1540 # 64604 <__PRETTY_FUNCTION__.10>
   12404:	b4578793          	addi	a5,a5,-1211 # b45 <catch_hook+0xb19>
   12408:	9c070713          	addi	a4,a4,-1600 # 639c0 <__PRETTY_FUNCTION__.1+0x444>
   1240c:	59458593          	addi	a1,a1,1428 # 63594 <__PRETTY_FUNCTION__.1+0x18>
   12410:	a7050513          	addi	a0,a0,-1424 # 63a70 <__PRETTY_FUNCTION__.1+0x4f4>
   12414:	f45ff06f          	j	12358 <mremap_chunk+0x12c>
   12418:	000638b7          	lui	a7,0x63
   1241c:	59088693          	addi	a3,a7,1424 # 63590 <__PRETTY_FUNCTION__.1+0x14>
   12420:	fc9ff06f          	j	123e8 <mremap_chunk+0x1bc>
   12424:	000638b7          	lui	a7,0x63
   12428:	59088693          	addi	a3,a7,1424 # 63590 <__PRETTY_FUNCTION__.1+0x14>
   1242c:	f69ff06f          	j	12394 <mremap_chunk+0x168>
   12430:	00000513          	li	a0,0
   12434:	ec9ff06f          	j	122fc <mremap_chunk+0xd0>

00012438 <get_free_list>:
   12438:	fd010113          	addi	sp,sp,-48
   1243c:	02912223          	sw	s1,36(sp)
   12440:	c201a783          	lw	a5,-992(gp) # 81f98 <free_list>
   12444:	02112623          	sw	ra,44(sp)
   12448:	02812423          	sw	s0,40(sp)
   1244c:	03212023          	sw	s2,32(sp)
   12450:	01312e23          	sw	s3,28(sp)
   12454:	01412c23          	sw	s4,24(sp)
   12458:	0a078c63          	beqz	a5,12510 <get_free_list+0xd8>
   1245c:	00070997          	auipc	s3,0x70
   12460:	9989a983          	lw	s3,-1640(s3) # 81df4 <_GLOBAL_OFFSET_TABLE_+0x4>
   12464:	00100713          	li	a4,1
   12468:	004987b3          	add	a5,s3,tp
   1246c:	0007aa03          	lw	s4,0(a5)
   12470:	c2418693          	addi	a3,gp,-988 # 81f9c <free_list_lock>
   12474:	1006a7af          	lr.w	a5,(a3)
   12478:	00079663          	bnez	a5,12484 <get_free_list+0x4c>
   1247c:	1ce6a62f          	sc.w.aq	a2,a4,(a3)
   12480:	fe061ae3          	bnez	a2,12474 <get_free_list+0x3c>
   12484:	16079e63          	bnez	a5,12600 <get_free_list+0x1c8>
   12488:	c201a403          	lw	s0,-992(gp) # 81f98 <free_list>
   1248c:	06040663          	beqz	s0,124f8 <get_free_list+0xc0>
   12490:	44c42703          	lw	a4,1100(s0)
   12494:	45042783          	lw	a5,1104(s0)
   12498:	c2e1a023          	sw	a4,-992(gp) # 81f98 <free_list>
   1249c:	10079063          	bnez	a5,1259c <get_free_list+0x164>
   124a0:	00100793          	li	a5,1
   124a4:	44f42823          	sw	a5,1104(s0)
   124a8:	000a0a63          	beqz	s4,124bc <get_free_list+0x84>
   124ac:	450a2783          	lw	a5,1104(s4)
   124b0:	08078463          	beqz	a5,12538 <get_free_list+0x100>
   124b4:	fff78793          	addi	a5,a5,-1
   124b8:	44fa2823          	sw	a5,1104(s4)
   124bc:	00000793          	li	a5,0
   124c0:	c2418713          	addi	a4,gp,-988 # 81f9c <free_list_lock>
   124c4:	0f50000f          	fence	iorw,ow
   124c8:	08f727af          	amoswap.w	a5,a5,(a4)
   124cc:	00100713          	li	a4,1
   124d0:	0af74663          	blt	a4,a5,1257c <get_free_list+0x144>
   124d4:	00100713          	li	a4,1
   124d8:	100427af          	lr.w	a5,(s0)
   124dc:	00079663          	bnez	a5,124e8 <get_free_list+0xb0>
   124e0:	1ce426af          	sc.w.aq	a3,a4,(s0)
   124e4:	fe069ae3          	bnez	a3,124d8 <get_free_list+0xa0>
   124e8:	12079863          	bnez	a5,12618 <get_free_list+0x1e0>
   124ec:	004989b3          	add	s3,s3,tp
   124f0:	0089a023          	sw	s0,0(s3)
   124f4:	0200006f          	j	12514 <get_free_list+0xdc>
   124f8:	00040713          	mv	a4,s0
   124fc:	c2418793          	addi	a5,gp,-988 # 81f9c <free_list_lock>
   12500:	0f50000f          	fence	iorw,ow
   12504:	08e7a72f          	amoswap.w	a4,a4,(a5)
   12508:	00100793          	li	a5,1
   1250c:	06e7c863          	blt	a5,a4,1257c <get_free_list+0x144>
   12510:	00000413          	li	s0,0
   12514:	02c12083          	lw	ra,44(sp)
   12518:	00040513          	mv	a0,s0
   1251c:	02812403          	lw	s0,40(sp)
   12520:	02412483          	lw	s1,36(sp)
   12524:	02012903          	lw	s2,32(sp)
   12528:	01c12983          	lw	s3,28(sp)
   1252c:	01812a03          	lw	s4,24(sp)
   12530:	03010113          	addi	sp,sp,48
   12534:	00008067          	ret
   12538:	b141a603          	lw	a2,-1260(gp) # 81e8c <__progname>
   1253c:	00064783          	lbu	a5,0(a2)
   12540:	0c079663          	bnez	a5,1260c <get_free_list+0x1d4>
   12544:	000676b7          	lui	a3,0x67
   12548:	a9c68693          	addi	a3,a3,-1380 # 66a9c <expected2.3+0x8>
   1254c:	000638b7          	lui	a7,0x63
   12550:	00064837          	lui	a6,0x64
   12554:	00064737          	lui	a4,0x64
   12558:	000635b7          	lui	a1,0x63
   1255c:	00064537          	lui	a0,0x64
   12560:	59088893          	addi	a7,a7,1424 # 63590 <__PRETTY_FUNCTION__.1+0x14>
   12564:	5c480813          	addi	a6,a6,1476 # 645c4 <__PRETTY_FUNCTION__.15>
   12568:	2a300793          	li	a5,675
   1256c:	a0470713          	addi	a4,a4,-1532 # 63a04 <__PRETTY_FUNCTION__.1+0x488>
   12570:	59458593          	addi	a1,a1,1428 # 63594 <__PRETTY_FUNCTION__.1+0x18>
   12574:	a0c50513          	addi	a0,a0,-1524 # 63a0c <__PRETTY_FUNCTION__.1+0x490>
   12578:	0640006f          	j	125dc <get_free_list+0x1a4>
   1257c:	06200893          	li	a7,98
   12580:	c2418513          	addi	a0,gp,-988 # 81f9c <free_list_lock>
   12584:	08100593          	li	a1,129
   12588:	00100613          	li	a2,1
   1258c:	00000693          	li	a3,0
   12590:	00000073          	ecall
   12594:	f40410e3          	bnez	s0,124d4 <get_free_list+0x9c>
   12598:	f79ff06f          	j	12510 <get_free_list+0xd8>
   1259c:	b141a603          	lw	a2,-1260(gp) # 81e8c <__progname>
   125a0:	00064783          	lbu	a5,0(a2)
   125a4:	04079863          	bnez	a5,125f4 <get_free_list+0x1bc>
   125a8:	000676b7          	lui	a3,0x67
   125ac:	a9c68693          	addi	a3,a3,-1380 # 66a9c <expected2.3+0x8>
   125b0:	000638b7          	lui	a7,0x63
   125b4:	00064837          	lui	a6,0x64
   125b8:	00064737          	lui	a4,0x64
   125bc:	000635b7          	lui	a1,0x63
   125c0:	00064537          	lui	a0,0x64
   125c4:	59088893          	addi	a7,a7,1424 # 63590 <__PRETTY_FUNCTION__.1+0x14>
   125c8:	5d480813          	addi	a6,a6,1492 # 645d4 <__PRETTY_FUNCTION__.14>
   125cc:	30100793          	li	a5,769
   125d0:	a0470713          	addi	a4,a4,-1532 # 63a04 <__PRETTY_FUNCTION__.1+0x488>
   125d4:	59458593          	addi	a1,a1,1428 # 63594 <__PRETTY_FUNCTION__.1+0x18>
   125d8:	aa450513          	addi	a0,a0,-1372 # 63aa4 <__PRETTY_FUNCTION__.1+0x528>
   125dc:	00a12023          	sw	a0,0(sp)
   125e0:	00000513          	li	a0,0
   125e4:	770130ef          	jal	ra,25d54 <__fxprintf>
   125e8:	b7c1a503          	lw	a0,-1156(gp) # 81ef4 <_IO_stderr>
   125ec:	349130ef          	jal	ra,26134 <_IO_fflush>
   125f0:	bc9fd0ef          	jal	ra,101b8 <abort>
   125f4:	000638b7          	lui	a7,0x63
   125f8:	59088693          	addi	a3,a7,1424 # 63590 <__PRETTY_FUNCTION__.1+0x14>
   125fc:	fb9ff06f          	j	125b4 <get_free_list+0x17c>
   12600:	c2418513          	addi	a0,gp,-988 # 81f9c <free_list_lock>
   12604:	31d050ef          	jal	ra,18120 <__lll_lock_wait_private>
   12608:	e81ff06f          	j	12488 <get_free_list+0x50>
   1260c:	000638b7          	lui	a7,0x63
   12610:	59088693          	addi	a3,a7,1424 # 63590 <__PRETTY_FUNCTION__.1+0x14>
   12614:	f3dff06f          	j	12550 <get_free_list+0x118>
   12618:	00040513          	mv	a0,s0
   1261c:	305050ef          	jal	ra,18120 <__lll_lock_wait_private>
   12620:	ecdff06f          	j	124ec <get_free_list+0xb4>

00012624 <arena_get_retry>:
   12624:	000817b7          	lui	a5,0x81
   12628:	fe010113          	addi	sp,sp,-32
   1262c:	00078793          	mv	a5,a5
   12630:	00912a23          	sw	s1,20(sp)
   12634:	00112e23          	sw	ra,28(sp)
   12638:	00812c23          	sw	s0,24(sp)
   1263c:	04078493          	addi	s1,a5,64 # 81040 <main_arena>
   12640:	04950663          	beq	a0,s1,1268c <arena_get_retry+0x68>
   12644:	00000693          	li	a3,0
   12648:	0f50000f          	fence	iorw,ow
   1264c:	08d526af          	amoswap.w	a3,a3,(a0)
   12650:	00100713          	li	a4,1
   12654:	06d74c63          	blt	a4,a3,126cc <arena_get_retry+0xa8>
   12658:	00100693          	li	a3,1
   1265c:	04078793          	addi	a5,a5,64
   12660:	1007a72f          	lr.w	a4,(a5)
   12664:	00071663          	bnez	a4,12670 <arena_get_retry+0x4c>
   12668:	1cd7a62f          	sc.w.aq	a2,a3,(a5)
   1266c:	fe061ae3          	bnez	a2,12660 <arena_get_retry+0x3c>
   12670:	00048513          	mv	a0,s1
   12674:	06071863          	bnez	a4,126e4 <arena_get_retry+0xc0>
   12678:	01c12083          	lw	ra,28(sp)
   1267c:	01812403          	lw	s0,24(sp)
   12680:	01412483          	lw	s1,20(sp)
   12684:	02010113          	addi	sp,sp,32
   12688:	00008067          	ret
   1268c:	00058413          	mv	s0,a1
   12690:	00000713          	li	a4,0
   12694:	04078793          	addi	a5,a5,64
   12698:	0f50000f          	fence	iorw,ow
   1269c:	08e7a72f          	amoswap.w	a4,a4,(a5)
   126a0:	00100793          	li	a5,1
   126a4:	04e7c863          	blt	a5,a4,126f4 <arena_get_retry+0xd0>
   126a8:	d91ff0ef          	jal	ra,12438 <get_free_list>
   126ac:	fc0516e3          	bnez	a0,12678 <arena_get_retry+0x54>
   126b0:	00040513          	mv	a0,s0
   126b4:	01812403          	lw	s0,24(sp)
   126b8:	01c12083          	lw	ra,28(sp)
   126bc:	00048593          	mv	a1,s1
   126c0:	01412483          	lw	s1,20(sp)
   126c4:	02010113          	addi	sp,sp,32
   126c8:	ec8ff06f          	j	11d90 <arena_get2.part.0>
   126cc:	06200893          	li	a7,98
   126d0:	08100593          	li	a1,129
   126d4:	00100613          	li	a2,1
   126d8:	00000693          	li	a3,0
   126dc:	00000073          	ecall
   126e0:	f79ff06f          	j	12658 <arena_get_retry+0x34>
   126e4:	00912623          	sw	s1,12(sp)
   126e8:	239050ef          	jal	ra,18120 <__lll_lock_wait_private>
   126ec:	00c12503          	lw	a0,12(sp)
   126f0:	f89ff06f          	j	12678 <arena_get_retry+0x54>
   126f4:	06200893          	li	a7,98
   126f8:	08100593          	li	a1,129
   126fc:	00100613          	li	a2,1
   12700:	00000693          	li	a3,0
   12704:	00000073          	ecall
   12708:	fa1ff06f          	j	126a8 <arena_get_retry+0x84>

0001270c <_int_free>:
   1270c:	0045a783          	lw	a5,4(a1)
   12710:	f9010113          	addi	sp,sp,-112
   12714:	06912223          	sw	s1,100(sp)
   12718:	ff87f493          	andi	s1,a5,-8
   1271c:	06112623          	sw	ra,108(sp)
   12720:	06812423          	sw	s0,104(sp)
   12724:	07212023          	sw	s2,96(sp)
   12728:	05312e23          	sw	s3,92(sp)
   1272c:	05412c23          	sw	s4,88(sp)
   12730:	05512a23          	sw	s5,84(sp)
   12734:	05612823          	sw	s6,80(sp)
   12738:	05712623          	sw	s7,76(sp)
   1273c:	05812423          	sw	s8,72(sp)
   12740:	05912223          	sw	s9,68(sp)
   12744:	05a12023          	sw	s10,64(sp)
   12748:	03b12e23          	sw	s11,60(sp)
   1274c:	40900733          	neg	a4,s1
   12750:	28b76a63          	bltu	a4,a1,129e4 <_int_free+0x2d8>
   12754:	00858993          	addi	s3,a1,8
   12758:	00f9f713          	andi	a4,s3,15
   1275c:	00058413          	mv	s0,a1
   12760:	28071263          	bnez	a4,129e4 <_int_free+0x2d8>
   12764:	00f00713          	li	a4,15
   12768:	28977463          	bgeu	a4,s1,129f0 <_int_free+0x2e4>
   1276c:	0087f713          	andi	a4,a5,8
   12770:	28071063          	bnez	a4,129f0 <_int_free+0x2e4>
   12774:	01022703          	lw	a4,16(tp) # 10 <tcache>
   12778:	00050913          	mv	s2,a0
   1277c:	00060a93          	mv	s5,a2
   12780:	02070a63          	beqz	a4,127b4 <_int_free+0xa8>
   12784:	00081a37          	lui	s4,0x81
   12788:	000a0a13          	mv	s4,s4
   1278c:	030a2683          	lw	a3,48(s4) # 81030 <mp_+0x30>
   12790:	fff48593          	addi	a1,s1,-1
   12794:	0045d613          	srli	a2,a1,0x4
   12798:	00d67e63          	bgeu	a2,a3,127b4 <_int_free+0xa8>
   1279c:	00c42683          	lw	a3,12(s0)
   127a0:	46d70463          	beq	a4,a3,12c08 <_int_free+0x4fc>
   127a4:	00c70533          	add	a0,a4,a2
   127a8:	00054683          	lbu	a3,0(a0)
   127ac:	038a2803          	lw	a6,56(s4)
   127b0:	2106e463          	bltu	a3,a6,129b8 <_int_free+0x2ac>
   127b4:	c341a703          	lw	a4,-972(gp) # 81fac <global_max_fast>
   127b8:	0a976463          	bltu	a4,s1,12860 <_int_free+0x154>
   127bc:	00940a33          	add	s4,s0,s1
   127c0:	004a2783          	lw	a5,4(s4)
   127c4:	00800713          	li	a4,8
   127c8:	22f77a63          	bgeu	a4,a5,129fc <_int_free+0x2f0>
   127cc:	45492703          	lw	a4,1108(s2)
   127d0:	ff87f793          	andi	a5,a5,-8
   127d4:	22e7f463          	bgeu	a5,a4,129fc <_int_free+0x2f0>
   127d8:	c281a583          	lw	a1,-984(gp) # 81fa0 <perturb_byte>
   127dc:	38059a63          	bnez	a1,12b70 <_int_free+0x464>
   127e0:	00100793          	li	a5,1
   127e4:	00890713          	addi	a4,s2,8
   127e8:	08f7202f          	amoswap.w	zero,a5,(a4)
   127ec:	0034d493          	srli	s1,s1,0x3
   127f0:	b6022683          	lw	a3,-1184(tp) # fffffb60 <__BSS_END__+0xfff7cfe8>
   127f4:	00249713          	slli	a4,s1,0x2
   127f8:	00e90733          	add	a4,s2,a4
   127fc:	00472783          	lw	a5,4(a4)
   12800:	38069063          	bnez	a3,12b80 <_int_free+0x474>
   12804:	34f40063          	beq	s0,a5,12b44 <_int_free+0x438>
   12808:	00f42423          	sw	a5,8(s0)
   1280c:	00872223          	sw	s0,4(a4)
   12810:	000a8a63          	beqz	s5,12824 <_int_free+0x118>
   12814:	00078863          	beqz	a5,12824 <_int_free+0x118>
   12818:	0047a783          	lw	a5,4(a5)
   1281c:	0037d793          	srli	a5,a5,0x3
   12820:	30f49663          	bne	s1,a5,12b2c <_int_free+0x420>
   12824:	06c12083          	lw	ra,108(sp)
   12828:	06812403          	lw	s0,104(sp)
   1282c:	06412483          	lw	s1,100(sp)
   12830:	06012903          	lw	s2,96(sp)
   12834:	05c12983          	lw	s3,92(sp)
   12838:	05812a03          	lw	s4,88(sp)
   1283c:	05412a83          	lw	s5,84(sp)
   12840:	05012b03          	lw	s6,80(sp)
   12844:	04c12b83          	lw	s7,76(sp)
   12848:	04812c03          	lw	s8,72(sp)
   1284c:	04412c83          	lw	s9,68(sp)
   12850:	04012d03          	lw	s10,64(sp)
   12854:	03c12d83          	lw	s11,60(sp)
   12858:	07010113          	addi	sp,sp,112
   1285c:	00008067          	ret
   12860:	0027f793          	andi	a5,a5,2
   12864:	10079a63          	bnez	a5,12978 <_int_free+0x26c>
   12868:	b6022783          	lw	a5,-1184(tp) # fffffb60 <__BSS_END__+0xfff7cfe8>
   1286c:	3c079663          	bnez	a5,12c38 <_int_free+0x52c>
   12870:	00100a93          	li	s5,1
   12874:	03892703          	lw	a4,56(s2)
   12878:	00940a33          	add	s4,s0,s1
   1287c:	3a870863          	beq	a4,s0,12c2c <_int_free+0x520>
   12880:	00492783          	lw	a5,4(s2)
   12884:	0027f793          	andi	a5,a5,2
   12888:	3c078c63          	beqz	a5,12c60 <_int_free+0x554>
   1288c:	004a2783          	lw	a5,4(s4)
   12890:	0017f713          	andi	a4,a5,1
   12894:	3e070463          	beqz	a4,12c7c <_int_free+0x570>
   12898:	00800713          	li	a4,8
   1289c:	ff87fb13          	andi	s6,a5,-8
   128a0:	2cf77263          	bgeu	a4,a5,12b64 <_int_free+0x458>
   128a4:	45492783          	lw	a5,1108(s2)
   128a8:	2afb7e63          	bgeu	s6,a5,12b64 <_int_free+0x458>
   128ac:	c281a583          	lw	a1,-984(gp) # 81fa0 <perturb_byte>
   128b0:	3e059263          	bnez	a1,12c94 <_int_free+0x588>
   128b4:	00442783          	lw	a5,4(s0)
   128b8:	0017f793          	andi	a5,a5,1
   128bc:	02079263          	bnez	a5,128e0 <_int_free+0x1d4>
   128c0:	00042783          	lw	a5,0(s0)
   128c4:	40f40433          	sub	s0,s0,a5
   128c8:	00442703          	lw	a4,4(s0)
   128cc:	00f484b3          	add	s1,s1,a5
   128d0:	ff877713          	andi	a4,a4,-8
   128d4:	4af71663          	bne	a4,a5,12d80 <_int_free+0x674>
   128d8:	00040513          	mv	a0,s0
   128dc:	828ff0ef          	jal	ra,11904 <unlink_chunk.constprop.0>
   128e0:	03892783          	lw	a5,56(s2)
   128e4:	27478663          	beq	a5,s4,12b50 <_int_free+0x444>
   128e8:	016a07b3          	add	a5,s4,s6
   128ec:	0047a783          	lw	a5,4(a5)
   128f0:	0017f793          	andi	a5,a5,1
   128f4:	2a078e63          	beqz	a5,12bb0 <_int_free+0x4a4>
   128f8:	004a2783          	lw	a5,4(s4)
   128fc:	ffe7f793          	andi	a5,a5,-2
   12900:	00fa2223          	sw	a5,4(s4)
   12904:	04092703          	lw	a4,64(s2)
   12908:	03890793          	addi	a5,s2,56
   1290c:	00c72683          	lw	a3,12(a4)
   12910:	44f69c63          	bne	a3,a5,12d68 <_int_free+0x65c>
   12914:	00e42423          	sw	a4,8(s0)
   12918:	00d42623          	sw	a3,12(s0)
   1291c:	3ef00793          	li	a5,1007
   12920:	1297ee63          	bltu	a5,s1,12a5c <_int_free+0x350>
   12924:	04892023          	sw	s0,64(s2)
   12928:	00872623          	sw	s0,12(a4)
   1292c:	0014e793          	ori	a5,s1,1
   12930:	00f42223          	sw	a5,4(s0)
   12934:	00940433          	add	s0,s0,s1
   12938:	00942023          	sw	s1,0(s0)
   1293c:	000107b7          	lui	a5,0x10
   12940:	12f4f463          	bgeu	s1,a5,12a68 <_int_free+0x35c>
   12944:	ee0a90e3          	bnez	s5,12824 <_int_free+0x118>
   12948:	000a8613          	mv	a2,s5
   1294c:	0f50000f          	fence	iorw,ow
   12950:	08c9262f          	amoswap.w	a2,a2,(s2)
   12954:	00100793          	li	a5,1
   12958:	ecc7d6e3          	bge	a5,a2,12824 <_int_free+0x118>
   1295c:	06200893          	li	a7,98
   12960:	00090513          	mv	a0,s2
   12964:	08100593          	li	a1,129
   12968:	00100613          	li	a2,1
   1296c:	00000693          	li	a3,0
   12970:	00000073          	ecall
   12974:	eb1ff06f          	j	12824 <_int_free+0x118>
   12978:	00040513          	mv	a0,s0
   1297c:	06812403          	lw	s0,104(sp)
   12980:	06c12083          	lw	ra,108(sp)
   12984:	06412483          	lw	s1,100(sp)
   12988:	06012903          	lw	s2,96(sp)
   1298c:	05c12983          	lw	s3,92(sp)
   12990:	05812a03          	lw	s4,88(sp)
   12994:	05412a83          	lw	s5,84(sp)
   12998:	05012b03          	lw	s6,80(sp)
   1299c:	04c12b83          	lw	s7,76(sp)
   129a0:	04812c03          	lw	s8,72(sp)
   129a4:	04412c83          	lw	s9,68(sp)
   129a8:	04012d03          	lw	s10,64(sp)
   129ac:	03c12d83          	lw	s11,60(sp)
   129b0:	07010113          	addi	sp,sp,112
   129b4:	af0ff06f          	j	11ca4 <munmap_chunk>
   129b8:	3ff00793          	li	a5,1023
   129bc:	20b7e263          	bltu	a5,a1,12bc0 <_int_free+0x4b4>
   129c0:	00261613          	slli	a2,a2,0x2
   129c4:	00c70633          	add	a2,a4,a2
   129c8:	04062783          	lw	a5,64(a2)
   129cc:	00e42623          	sw	a4,12(s0)
   129d0:	00168693          	addi	a3,a3,1
   129d4:	00f42423          	sw	a5,8(s0)
   129d8:	05362023          	sw	s3,64(a2)
   129dc:	00d50023          	sb	a3,0(a0)
   129e0:	e45ff06f          	j	12824 <_int_free+0x118>
   129e4:	00064537          	lui	a0,0x64
   129e8:	ac450513          	addi	a0,a0,-1340 # 63ac4 <__PRETTY_FUNCTION__.1+0x548>
   129ec:	ed0fe0ef          	jal	ra,110bc <malloc_printerr>
   129f0:	00064537          	lui	a0,0x64
   129f4:	adc50513          	addi	a0,a0,-1316 # 63adc <__PRETTY_FUNCTION__.1+0x560>
   129f8:	ec4fe0ef          	jal	ra,110bc <malloc_printerr>
   129fc:	040a9a63          	bnez	s5,12a50 <_int_free+0x344>
   12a00:	00100713          	li	a4,1
   12a04:	100927af          	lr.w	a5,(s2)
   12a08:	00079663          	bnez	a5,12a14 <_int_free+0x308>
   12a0c:	1ce926af          	sc.w.aq	a3,a4,(s2)
   12a10:	fe069ae3          	bnez	a3,12a04 <_int_free+0x2f8>
   12a14:	12079263          	bnez	a5,12b38 <_int_free+0x42c>
   12a18:	004a2783          	lw	a5,4(s4)
   12a1c:	00800713          	li	a4,8
   12a20:	0cf76863          	bltu	a4,a5,12af0 <_int_free+0x3e4>
   12a24:	00000793          	li	a5,0
   12a28:	0f50000f          	fence	iorw,ow
   12a2c:	08f927af          	amoswap.w	a5,a5,(s2)
   12a30:	00100713          	li	a4,1
   12a34:	00f75e63          	bge	a4,a5,12a50 <_int_free+0x344>
   12a38:	06200893          	li	a7,98
   12a3c:	00090513          	mv	a0,s2
   12a40:	08100593          	li	a1,129
   12a44:	00100613          	li	a2,1
   12a48:	00000693          	li	a3,0
   12a4c:	00000073          	ecall
   12a50:	00064537          	lui	a0,0x64
   12a54:	b3c50513          	addi	a0,a0,-1220 # 63b3c <__PRETTY_FUNCTION__.1+0x5c0>
   12a58:	e64fe0ef          	jal	ra,110bc <malloc_printerr>
   12a5c:	00042823          	sw	zero,16(s0)
   12a60:	00042a23          	sw	zero,20(s0)
   12a64:	ec1ff06f          	j	12924 <_int_free+0x218>
   12a68:	00892783          	lw	a5,8(s2)
   12a6c:	22079c63          	bnez	a5,12ca4 <_int_free+0x598>
   12a70:	00081a37          	lui	s4,0x81
   12a74:	000a0a13          	mv	s4,s4
   12a78:	040a0793          	addi	a5,s4,64 # 81040 <main_arena>
   12a7c:	2cf90463          	beq	s2,a5,12d44 <_int_free+0x638>
   12a80:	03892b03          	lw	s6,56(s2)
   12a84:	fff00437          	lui	s0,0xfff00
   12a88:	008b7433          	and	s0,s6,s0
   12a8c:	00042783          	lw	a5,0(s0) # fff00000 <__BSS_END__+0xffe7d488>
   12a90:	23278063          	beq	a5,s2,12cb0 <_int_free+0x5a4>
   12a94:	b141a603          	lw	a2,-1260(gp) # 81e8c <__progname>
   12a98:	00064783          	lbu	a5,0(a2)
   12a9c:	2c079c63          	bnez	a5,12d74 <_int_free+0x668>
   12aa0:	000676b7          	lui	a3,0x67
   12aa4:	a9c68693          	addi	a3,a3,-1380 # 66a9c <expected2.3+0x8>
   12aa8:	000638b7          	lui	a7,0x63
   12aac:	00064837          	lui	a6,0x64
   12ab0:	000017b7          	lui	a5,0x1
   12ab4:	00064737          	lui	a4,0x64
   12ab8:	000635b7          	lui	a1,0x63
   12abc:	00064537          	lui	a0,0x64
   12ac0:	59088893          	addi	a7,a7,1424 # 63590 <__PRETTY_FUNCTION__.1+0x14>
   12ac4:	63080813          	addi	a6,a6,1584 # 64630 <__PRETTY_FUNCTION__.6>
   12ac8:	14578793          	addi	a5,a5,325 # 1145 <catch_hook+0x1119>
   12acc:	9c070713          	addi	a4,a4,-1600 # 639c0 <__PRETTY_FUNCTION__.1+0x444>
   12ad0:	59458593          	addi	a1,a1,1428 # 63594 <__PRETTY_FUNCTION__.1+0x18>
   12ad4:	c8450513          	addi	a0,a0,-892 # 63c84 <__PRETTY_FUNCTION__.1+0x708>
   12ad8:	00a12023          	sw	a0,0(sp)
   12adc:	00000513          	li	a0,0
   12ae0:	274130ef          	jal	ra,25d54 <__fxprintf>
   12ae4:	b7c1a503          	lw	a0,-1156(gp) # 81ef4 <_IO_stderr>
   12ae8:	64c130ef          	jal	ra,26134 <_IO_fflush>
   12aec:	eccfd0ef          	jal	ra,101b8 <abort>
   12af0:	45492703          	lw	a4,1108(s2)
   12af4:	ff87f793          	andi	a5,a5,-8
   12af8:	f2e7f6e3          	bgeu	a5,a4,12a24 <_int_free+0x318>
   12afc:	00000793          	li	a5,0
   12b00:	0f50000f          	fence	iorw,ow
   12b04:	08f927af          	amoswap.w	a5,a5,(s2)
   12b08:	00100713          	li	a4,1
   12b0c:	ccf756e3          	bge	a4,a5,127d8 <_int_free+0xcc>
   12b10:	06200893          	li	a7,98
   12b14:	00090513          	mv	a0,s2
   12b18:	08100593          	li	a1,129
   12b1c:	00100613          	li	a2,1
   12b20:	00000693          	li	a3,0
   12b24:	00000073          	ecall
   12b28:	cb1ff06f          	j	127d8 <_int_free+0xcc>
   12b2c:	00064537          	lui	a0,0x64
   12b30:	b8450513          	addi	a0,a0,-1148 # 63b84 <__PRETTY_FUNCTION__.1+0x608>
   12b34:	d88fe0ef          	jal	ra,110bc <malloc_printerr>
   12b38:	00090513          	mv	a0,s2
   12b3c:	5e4050ef          	jal	ra,18120 <__lll_lock_wait_private>
   12b40:	ed9ff06f          	j	12a18 <_int_free+0x30c>
   12b44:	00064537          	lui	a0,0x64
   12b48:	b6050513          	addi	a0,a0,-1184 # 63b60 <__PRETTY_FUNCTION__.1+0x5e4>
   12b4c:	d70fe0ef          	jal	ra,110bc <malloc_printerr>
   12b50:	016484b3          	add	s1,s1,s6
   12b54:	0014e793          	ori	a5,s1,1
   12b58:	00f42223          	sw	a5,4(s0)
   12b5c:	02892c23          	sw	s0,56(s2)
   12b60:	dddff06f          	j	1293c <_int_free+0x230>
   12b64:	00064537          	lui	a0,0x64
   12b68:	c0850513          	addi	a0,a0,-1016 # 63c08 <__PRETTY_FUNCTION__.1+0x68c>
   12b6c:	d50fe0ef          	jal	ra,110bc <malloc_printerr>
   12b70:	ff848613          	addi	a2,s1,-8
   12b74:	00098513          	mv	a0,s3
   12b78:	578040ef          	jal	ra,170f0 <memset>
   12b7c:	c65ff06f          	j	127e0 <_int_free+0xd4>
   12b80:	00148713          	addi	a4,s1,1
   12b84:	00271713          	slli	a4,a4,0x2
   12b88:	00e90933          	add	s2,s2,a4
   12b8c:	fa878ce3          	beq	a5,s0,12b44 <_int_free+0x438>
   12b90:	00f42423          	sw	a5,8(s0)
   12b94:	1009272f          	lr.w	a4,(s2)
   12b98:	00f71663          	bne	a4,a5,12ba4 <_int_free+0x498>
   12b9c:	188926af          	sc.w	a3,s0,(s2)
   12ba0:	fe069ae3          	bnez	a3,12b94 <_int_free+0x488>
   12ba4:	c6e786e3          	beq	a5,a4,12810 <_int_free+0x104>
   12ba8:	00070793          	mv	a5,a4
   12bac:	fe1ff06f          	j	12b8c <_int_free+0x480>
   12bb0:	000a0513          	mv	a0,s4
   12bb4:	d51fe0ef          	jal	ra,11904 <unlink_chunk.constprop.0>
   12bb8:	016484b3          	add	s1,s1,s6
   12bbc:	d49ff06f          	j	12904 <_int_free+0x1f8>
   12bc0:	b141a603          	lw	a2,-1260(gp) # 81e8c <__progname>
   12bc4:	00064783          	lbu	a5,0(a2)
   12bc8:	0c079063          	bnez	a5,12c88 <_int_free+0x57c>
   12bcc:	000676b7          	lui	a3,0x67
   12bd0:	a9c68693          	addi	a3,a3,-1380 # 66a9c <expected2.3+0x8>
   12bd4:	000638b7          	lui	a7,0x63
   12bd8:	00064837          	lui	a6,0x64
   12bdc:	000017b7          	lui	a5,0x1
   12be0:	00064737          	lui	a4,0x64
   12be4:	000635b7          	lui	a1,0x63
   12be8:	00064537          	lui	a0,0x64
   12bec:	59088893          	addi	a7,a7,1424 # 63590 <__PRETTY_FUNCTION__.1+0x14>
   12bf0:	65480813          	addi	a6,a6,1620 # 64654 <__PRETTY_FUNCTION__.3>
   12bf4:	b7378793          	addi	a5,a5,-1165 # b73 <catch_hook+0xb47>
   12bf8:	9c070713          	addi	a4,a4,-1600 # 639c0 <__PRETTY_FUNCTION__.1+0x444>
   12bfc:	59458593          	addi	a1,a1,1428 # 63594 <__PRETTY_FUNCTION__.1+0x18>
   12c00:	b2050513          	addi	a0,a0,-1248 # 63b20 <__PRETTY_FUNCTION__.1+0x5a4>
   12c04:	ed5ff06f          	j	12ad8 <_int_free+0x3cc>
   12c08:	01060693          	addi	a3,a2,16
   12c0c:	00269693          	slli	a3,a3,0x2
   12c10:	00d706b3          	add	a3,a4,a3
   12c14:	0006a683          	lw	a3,0(a3)
   12c18:	b80686e3          	beqz	a3,127a4 <_int_free+0x98>
   12c1c:	fed99ce3          	bne	s3,a3,12c14 <_int_free+0x508>
   12c20:	00064537          	lui	a0,0x64
   12c24:	af450513          	addi	a0,a0,-1292 # 63af4 <__PRETTY_FUNCTION__.1+0x578>
   12c28:	c94fe0ef          	jal	ra,110bc <malloc_printerr>
   12c2c:	00064537          	lui	a0,0x64
   12c30:	ba450513          	addi	a0,a0,-1116 # 63ba4 <__PRETTY_FUNCTION__.1+0x628>
   12c34:	c88fe0ef          	jal	ra,110bc <malloc_printerr>
   12c38:	c20a9ee3          	bnez	s5,12874 <_int_free+0x168>
   12c3c:	00100713          	li	a4,1
   12c40:	100927af          	lr.w	a5,(s2)
   12c44:	00079663          	bnez	a5,12c50 <_int_free+0x544>
   12c48:	1ce926af          	sc.w.aq	a3,a4,(s2)
   12c4c:	fe069ae3          	bnez	a3,12c40 <_int_free+0x534>
   12c50:	c20782e3          	beqz	a5,12874 <_int_free+0x168>
   12c54:	00090513          	mv	a0,s2
   12c58:	4c8050ef          	jal	ra,18120 <__lll_lock_wait_private>
   12c5c:	c19ff06f          	j	12874 <_int_free+0x168>
   12c60:	00472783          	lw	a5,4(a4)
   12c64:	ff87f793          	andi	a5,a5,-8
   12c68:	00f70733          	add	a4,a4,a5
   12c6c:	c2ea60e3          	bltu	s4,a4,1288c <_int_free+0x180>
   12c70:	00064537          	lui	a0,0x64
   12c74:	bc450513          	addi	a0,a0,-1084 # 63bc4 <__PRETTY_FUNCTION__.1+0x648>
   12c78:	c44fe0ef          	jal	ra,110bc <malloc_printerr>
   12c7c:	00064537          	lui	a0,0x64
   12c80:	be450513          	addi	a0,a0,-1052 # 63be4 <__PRETTY_FUNCTION__.1+0x668>
   12c84:	c38fe0ef          	jal	ra,110bc <malloc_printerr>
   12c88:	000638b7          	lui	a7,0x63
   12c8c:	59088693          	addi	a3,a7,1424 # 63590 <__PRETTY_FUNCTION__.1+0x14>
   12c90:	f49ff06f          	j	12bd8 <_int_free+0x4cc>
   12c94:	ff848613          	addi	a2,s1,-8
   12c98:	00098513          	mv	a0,s3
   12c9c:	454040ef          	jal	ra,170f0 <memset>
   12ca0:	c15ff06f          	j	128b4 <_int_free+0x1a8>
   12ca4:	00090513          	mv	a0,s2
   12ca8:	d2dfe0ef          	jal	ra,119d4 <malloc_consolidate>
   12cac:	dc5ff06f          	j	12a70 <_int_free+0x364>
   12cb0:	01840793          	addi	a5,s0,24
   12cb4:	004a2d83          	lw	s11,4(s4)
   12cb8:	b301ac83          	lw	s9,-1232(gp) # 81ea8 <_dl_pagesize>
   12cbc:	26fb1c63          	bne	s6,a5,12f34 <_int_free+0x828>
   12cc0:	00100d37          	lui	s10,0x100
   12cc4:	019d87b3          	add	a5,s11,s9
   12cc8:	00100613          	li	a2,1
   12ccc:	01e00813          	li	a6,30
   12cd0:	ffed0893          	addi	a7,s10,-2 # ffffe <__BSS_END__+0x7d486>
   12cd4:	01078b93          	addi	s7,a5,16
   12cd8:	fffc8e13          	addi	t3,s9,-1
   12cdc:	00442983          	lw	s3,4(s0)
   12ce0:	0089a583          	lw	a1,8(s3)
   12ce4:	ff858793          	addi	a5,a1,-8
   12ce8:	00f98733          	add	a4,s3,a5
   12cec:	00f77713          	andi	a4,a4,15
   12cf0:	40e787b3          	sub	a5,a5,a4
   12cf4:	00f987b3          	add	a5,s3,a5
   12cf8:	0047a683          	lw	a3,4(a5)
   12cfc:	08c68863          	beq	a3,a2,12d8c <_int_free+0x680>
   12d00:	b141a603          	lw	a2,-1260(gp) # 81e8c <__progname>
   12d04:	00064783          	lbu	a5,0(a2)
   12d08:	10079063          	bnez	a5,12e08 <_int_free+0x6fc>
   12d0c:	000676b7          	lui	a3,0x67
   12d10:	a9c68693          	addi	a3,a3,-1380 # 66a9c <expected2.3+0x8>
   12d14:	000638b7          	lui	a7,0x63
   12d18:	00064837          	lui	a6,0x64
   12d1c:	00064737          	lui	a4,0x64
   12d20:	000635b7          	lui	a1,0x63
   12d24:	00064537          	lui	a0,0x64
   12d28:	59088893          	addi	a7,a7,1424 # 63590 <__PRETTY_FUNCTION__.1+0x14>
   12d2c:	62480813          	addi	a6,a6,1572 # 64624 <__PRETTY_FUNCTION__.7>
   12d30:	26400793          	li	a5,612
   12d34:	a0470713          	addi	a4,a4,-1532 # 63a04 <__PRETTY_FUNCTION__.1+0x488>
   12d38:	59458593          	addi	a1,a1,1428 # 63594 <__PRETTY_FUNCTION__.1+0x18>
   12d3c:	c9850513          	addi	a0,a0,-872 # 63c98 <__PRETTY_FUNCTION__.1+0x71c>
   12d40:	d99ff06f          	j	12ad8 <_int_free+0x3cc>
   12d44:	078a2783          	lw	a5,120(s4)
   12d48:	000a2703          	lw	a4,0(s4)
   12d4c:	0047a783          	lw	a5,4(a5)
   12d50:	ff87f793          	andi	a5,a5,-8
   12d54:	bee7e8e3          	bltu	a5,a4,12944 <_int_free+0x238>
   12d58:	004a2503          	lw	a0,4(s4)
   12d5c:	ac5fe0ef          	jal	ra,11820 <systrim.constprop.0>
   12d60:	ac0a92e3          	bnez	s5,12824 <_int_free+0x118>
   12d64:	be5ff06f          	j	12948 <_int_free+0x23c>
   12d68:	00064537          	lui	a0,0x64
   12d6c:	c6050513          	addi	a0,a0,-928 # 63c60 <__PRETTY_FUNCTION__.1+0x6e4>
   12d70:	b4cfe0ef          	jal	ra,110bc <malloc_printerr>
   12d74:	000638b7          	lui	a7,0x63
   12d78:	59088693          	addi	a3,a7,1424 # 63590 <__PRETTY_FUNCTION__.1+0x14>
   12d7c:	d31ff06f          	j	12aac <_int_free+0x3a0>
   12d80:	00064537          	lui	a0,0x64
   12d84:	c2c50513          	addi	a0,a0,-980 # 63c2c <__PRETTY_FUNCTION__.1+0x6b0>
   12d88:	b34fe0ef          	jal	ra,110bc <malloc_printerr>
   12d8c:	0007a483          	lw	s1,0(a5)
   12d90:	409784b3          	sub	s1,a5,s1
   12d94:	0044a783          	lw	a5,4(s1)
   12d98:	ff87f693          	andi	a3,a5,-8
   12d9c:	00e686b3          	add	a3,a3,a4
   12da0:	00768713          	addi	a4,a3,7
   12da4:	12e86263          	bltu	a6,a4,12ec8 <_int_free+0x7bc>
   12da8:	0017f793          	andi	a5,a5,1
   12dac:	00868c13          	addi	s8,a3,8
   12db0:	06079263          	bnez	a5,12e14 <_int_free+0x708>
   12db4:	0004a783          	lw	a5,0(s1)
   12db8:	00fc0c33          	add	s8,s8,a5
   12dbc:	fffc0793          	addi	a5,s8,-1
   12dc0:	04f8fa63          	bgeu	a7,a5,12e14 <_int_free+0x708>
   12dc4:	b141a603          	lw	a2,-1260(gp) # 81e8c <__progname>
   12dc8:	00064783          	lbu	a5,0(a2)
   12dcc:	24079c63          	bnez	a5,13024 <_int_free+0x918>
   12dd0:	000676b7          	lui	a3,0x67
   12dd4:	a9c68693          	addi	a3,a3,-1380 # 66a9c <expected2.3+0x8>
   12dd8:	000638b7          	lui	a7,0x63
   12ddc:	00064837          	lui	a6,0x64
   12de0:	00064737          	lui	a4,0x64
   12de4:	000635b7          	lui	a1,0x63
   12de8:	00064537          	lui	a0,0x64
   12dec:	59088893          	addi	a7,a7,1424 # 63590 <__PRETTY_FUNCTION__.1+0x14>
   12df0:	62480813          	addi	a6,a6,1572 # 64624 <__PRETTY_FUNCTION__.7>
   12df4:	26a00793          	li	a5,618
   12df8:	a0470713          	addi	a4,a4,-1532 # 63a04 <__PRETTY_FUNCTION__.1+0x488>
   12dfc:	59458593          	addi	a1,a1,1428 # 63594 <__PRETTY_FUNCTION__.1+0x18>
   12e00:	cf450513          	addi	a0,a0,-780 # 63cf4 <__PRETTY_FUNCTION__.1+0x778>
   12e04:	cd5ff06f          	j	12ad8 <_int_free+0x3cc>
   12e08:	000638b7          	lui	a7,0x63
   12e0c:	59088693          	addi	a3,a7,1424 # 63590 <__PRETTY_FUNCTION__.1+0x14>
   12e10:	f09ff06f          	j	12d18 <_int_free+0x60c>
   12e14:	40bd0733          	sub	a4,s10,a1
   12e18:	01870733          	add	a4,a4,s8
   12e1c:	11776c63          	bltu	a4,s7,12f34 <_int_free+0x828>
   12e20:	45492703          	lw	a4,1108(s2)
   12e24:	00842583          	lw	a1,8(s0)
   12e28:	c181a683          	lw	a3,-1000(gp) # 81f90 <aligned_heap_area>
   12e2c:	01a407b3          	add	a5,s0,s10
   12e30:	40b70733          	sub	a4,a4,a1
   12e34:	44e92a23          	sw	a4,1108(s2)
   12e38:	1ef68263          	beq	a3,a5,1301c <_int_free+0x910>
   12e3c:	001005b7          	lui	a1,0x100
   12e40:	00040513          	mv	a0,s0
   12e44:	01c12e23          	sw	t3,28(sp)
   12e48:	329040ef          	jal	ra,17970 <__munmap>
   12e4c:	0044a783          	lw	a5,4(s1)
   12e50:	00100737          	lui	a4,0x100
   12e54:	01c12e03          	lw	t3,28(sp)
   12e58:	0017f793          	andi	a5,a5,1
   12e5c:	00100613          	li	a2,1
   12e60:	01e00813          	li	a6,30
   12e64:	ffe70893          	addi	a7,a4,-2 # ffffe <__BSS_END__+0x7d486>
   12e68:	18078663          	beqz	a5,12ff4 <_int_free+0x8e8>
   12e6c:	018487b3          	add	a5,s1,s8
   12e70:	01c7f733          	and	a4,a5,t3
   12e74:	12071e63          	bnez	a4,12fb0 <_int_free+0x8a4>
   12e78:	0089a703          	lw	a4,8(s3)
   12e7c:	00e98733          	add	a4,s3,a4
   12e80:	08e78c63          	beq	a5,a4,12f18 <_int_free+0x80c>
   12e84:	b141a603          	lw	a2,-1260(gp) # 81e8c <__progname>
   12e88:	00064783          	lbu	a5,0(a2)
   12e8c:	1a079263          	bnez	a5,13030 <_int_free+0x924>
   12e90:	000676b7          	lui	a3,0x67
   12e94:	a9c68693          	addi	a3,a3,-1380 # 66a9c <expected2.3+0x8>
   12e98:	000638b7          	lui	a7,0x63
   12e9c:	00064837          	lui	a6,0x64
   12ea0:	00064737          	lui	a4,0x64
   12ea4:	000635b7          	lui	a1,0x63
   12ea8:	00064537          	lui	a0,0x64
   12eac:	59088893          	addi	a7,a7,1424 # 63590 <__PRETTY_FUNCTION__.1+0x14>
   12eb0:	62480813          	addi	a6,a6,1572 # 64624 <__PRETTY_FUNCTION__.7>
   12eb4:	27700793          	li	a5,631
   12eb8:	a0470713          	addi	a4,a4,-1532 # 63a04 <__PRETTY_FUNCTION__.1+0x488>
   12ebc:	59458593          	addi	a1,a1,1428 # 63594 <__PRETTY_FUNCTION__.1+0x18>
   12ec0:	d6050513          	addi	a0,a0,-672 # 63d60 <__PRETTY_FUNCTION__.1+0x7e4>
   12ec4:	c15ff06f          	j	12ad8 <_int_free+0x3cc>
   12ec8:	b141a603          	lw	a2,-1260(gp) # 81e8c <__progname>
   12ecc:	00064783          	lbu	a5,0(a2)
   12ed0:	02079e63          	bnez	a5,12f0c <_int_free+0x800>
   12ed4:	000676b7          	lui	a3,0x67
   12ed8:	a9c68693          	addi	a3,a3,-1380 # 66a9c <expected2.3+0x8>
   12edc:	000638b7          	lui	a7,0x63
   12ee0:	00064837          	lui	a6,0x64
   12ee4:	00064737          	lui	a4,0x64
   12ee8:	000635b7          	lui	a1,0x63
   12eec:	00064537          	lui	a0,0x64
   12ef0:	59088893          	addi	a7,a7,1424 # 63590 <__PRETTY_FUNCTION__.1+0x14>
   12ef4:	62480813          	addi	a6,a6,1572 # 64624 <__PRETTY_FUNCTION__.7>
   12ef8:	26700793          	li	a5,615
   12efc:	a0470713          	addi	a4,a4,-1532 # 63a04 <__PRETTY_FUNCTION__.1+0x488>
   12f00:	59458593          	addi	a1,a1,1428 # 63594 <__PRETTY_FUNCTION__.1+0x18>
   12f04:	cc450513          	addi	a0,a0,-828 # 63cc4 <__PRETTY_FUNCTION__.1+0x748>
   12f08:	bd1ff06f          	j	12ad8 <_int_free+0x3cc>
   12f0c:	000638b7          	lui	a7,0x63
   12f10:	59088693          	addi	a3,a7,1424 # 63590 <__PRETTY_FUNCTION__.1+0x14>
   12f14:	fcdff06f          	j	12ee0 <_int_free+0x7d4>
   12f18:	02992c23          	sw	s1,56(s2)
   12f1c:	001c6693          	ori	a3,s8,1
   12f20:	00d4a223          	sw	a3,4(s1)
   12f24:	01898793          	addi	a5,s3,24
   12f28:	00048b13          	mv	s6,s1
   12f2c:	00098413          	mv	s0,s3
   12f30:	daf486e3          	beq	s1,a5,12cdc <_int_free+0x5d0>
   12f34:	004b2983          	lw	s3,4(s6)
   12f38:	000a2783          	lw	a5,0(s4)
   12f3c:	ff89f993          	andi	s3,s3,-8
   12f40:	a0f9e2e3          	bltu	s3,a5,12944 <_int_free+0x238>
   12f44:	fef98793          	addi	a5,s3,-17
   12f48:	9e07cee3          	bltz	a5,12944 <_int_free+0x238>
   12f4c:	9efdfce3          	bgeu	s11,a5,12944 <_int_free+0x238>
   12f50:	41b784b3          	sub	s1,a5,s11
   12f54:	419007b3          	neg	a5,s9
   12f58:	00f4f4b3          	and	s1,s1,a5
   12f5c:	9e0484e3          	beqz	s1,12944 <_int_free+0x238>
   12f60:	00842b83          	lw	s7,8(s0)
   12f64:	01700793          	li	a5,23
   12f68:	409b8bb3          	sub	s7,s7,s1
   12f6c:	9d77dce3          	bge	a5,s7,12944 <_int_free+0x238>
   12f70:	af41a783          	lw	a5,-1292(gp) # 81e6c <may_shrink_heap.8>
   12f74:	0c07ca63          	bltz	a5,13048 <_int_free+0x93c>
   12f78:	10079063          	bnez	a5,13078 <_int_free+0x96c>
   12f7c:	00400613          	li	a2,4
   12f80:	00048593          	mv	a1,s1
   12f84:	01740533          	add	a0,s0,s7
   12f88:	221040ef          	jal	ra,179a8 <__madvise>
   12f8c:	45492703          	lw	a4,1108(s2)
   12f90:	409987b3          	sub	a5,s3,s1
   12f94:	01742423          	sw	s7,8(s0)
   12f98:	409704b3          	sub	s1,a4,s1
   12f9c:	44992a23          	sw	s1,1108(s2)
   12fa0:	0017e793          	ori	a5,a5,1
   12fa4:	00fb2223          	sw	a5,4(s6)
   12fa8:	860a9ee3          	bnez	s5,12824 <_int_free+0x118>
   12fac:	99dff06f          	j	12948 <_int_free+0x23c>
   12fb0:	b141a603          	lw	a2,-1260(gp) # 81e8c <__progname>
   12fb4:	00064783          	lbu	a5,0(a2)
   12fb8:	08079263          	bnez	a5,1303c <_int_free+0x930>
   12fbc:	000676b7          	lui	a3,0x67
   12fc0:	a9c68693          	addi	a3,a3,-1380 # 66a9c <expected2.3+0x8>
   12fc4:	000638b7          	lui	a7,0x63
   12fc8:	00064837          	lui	a6,0x64
   12fcc:	00064737          	lui	a4,0x64
   12fd0:	000635b7          	lui	a1,0x63
   12fd4:	00064537          	lui	a0,0x64
   12fd8:	59088893          	addi	a7,a7,1424 # 63590 <__PRETTY_FUNCTION__.1+0x14>
   12fdc:	62480813          	addi	a6,a6,1572 # 64624 <__PRETTY_FUNCTION__.7>
   12fe0:	27600793          	li	a5,630
   12fe4:	a0470713          	addi	a4,a4,-1532 # 63a04 <__PRETTY_FUNCTION__.1+0x488>
   12fe8:	59458593          	addi	a1,a1,1428 # 63594 <__PRETTY_FUNCTION__.1+0x18>
   12fec:	d2050513          	addi	a0,a0,-736 # 63d20 <__PRETTY_FUNCTION__.1+0x7a4>
   12ff0:	ae9ff06f          	j	12ad8 <_int_free+0x3cc>
   12ff4:	0004a783          	lw	a5,0(s1)
   12ff8:	40f484b3          	sub	s1,s1,a5
   12ffc:	00048513          	mv	a0,s1
   13000:	905fe0ef          	jal	ra,11904 <unlink_chunk.constprop.0>
   13004:	001007b7          	lui	a5,0x100
   13008:	01c12e03          	lw	t3,28(sp)
   1300c:	ffe78893          	addi	a7,a5,-2 # ffffe <__BSS_END__+0x7d486>
   13010:	01e00813          	li	a6,30
   13014:	00100613          	li	a2,1
   13018:	e55ff06f          	j	12e6c <_int_free+0x760>
   1301c:	c001ac23          	sw	zero,-1000(gp) # 81f90 <aligned_heap_area>
   13020:	e1dff06f          	j	12e3c <_int_free+0x730>
   13024:	000638b7          	lui	a7,0x63
   13028:	59088693          	addi	a3,a7,1424 # 63590 <__PRETTY_FUNCTION__.1+0x14>
   1302c:	db1ff06f          	j	12ddc <_int_free+0x6d0>
   13030:	000638b7          	lui	a7,0x63
   13034:	59088693          	addi	a3,a7,1424 # 63590 <__PRETTY_FUNCTION__.1+0x14>
   13038:	e65ff06f          	j	12e9c <_int_free+0x790>
   1303c:	000638b7          	lui	a7,0x63
   13040:	59088693          	addi	a3,a7,1424 # 63590 <__PRETTY_FUNCTION__.1+0x14>
   13044:	f85ff06f          	j	12fc8 <_int_free+0x8bc>
   13048:	000817b7          	lui	a5,0x81
   1304c:	fdc7aa03          	lw	s4,-36(a5) # 80fdc <__libc_enable_secure>
   13050:	af41aa23          	sw	s4,-1292(gp) # 81e6c <may_shrink_heap.8>
   13054:	020a1263          	bnez	s4,13078 <_int_free+0x96c>
   13058:	00064537          	lui	a0,0x64
   1305c:	000805b7          	lui	a1,0x80
   13060:	d9850513          	addi	a0,a0,-616 # 63d98 <__PRETTY_FUNCTION__.1+0x81c>
   13064:	734040ef          	jal	ra,17798 <__open_nocancel>
   13068:	00050c93          	mv	s9,a0
   1306c:	02055c63          	bgez	a0,130a4 <_int_free+0x998>
   13070:	af41a783          	lw	a5,-1292(gp) # 81e6c <may_shrink_heap.8>
   13074:	f00784e3          	beqz	a5,12f7c <_int_free+0x870>
   13078:	00000793          	li	a5,0
   1307c:	fff00713          	li	a4,-1
   13080:	03200693          	li	a3,50
   13084:	00000613          	li	a2,0
   13088:	00048593          	mv	a1,s1
   1308c:	01740533          	add	a0,s0,s7
   13090:	089040ef          	jal	ra,17918 <__mmap>
   13094:	fff00793          	li	a5,-1
   13098:	8af506e3          	beq	a0,a5,12944 <_int_free+0x238>
   1309c:	01742623          	sw	s7,12(s0)
   130a0:	eedff06f          	j	12f8c <_int_free+0x880>
   130a4:	00100613          	li	a2,1
   130a8:	02f10593          	addi	a1,sp,47
   130ac:	788040ef          	jal	ra,17834 <__read_nocancel>
   130b0:	00a05863          	blez	a0,130c0 <_int_free+0x9b4>
   130b4:	02f14a03          	lbu	s4,47(sp)
   130b8:	fcea0a13          	addi	s4,s4,-50
   130bc:	001a3a13          	seqz	s4,s4
   130c0:	000c8513          	mv	a0,s9
   130c4:	af41aa23          	sw	s4,-1292(gp) # 81e6c <may_shrink_heap.8>
   130c8:	6a0040ef          	jal	ra,17768 <__close_nocancel>
   130cc:	fa5ff06f          	j	13070 <_int_free+0x964>

000130d0 <sysmalloc>:
   130d0:	f9010113          	addi	sp,sp,-112
   130d4:	06812423          	sw	s0,104(sp)
   130d8:	05712623          	sw	s7,76(sp)
   130dc:	05812423          	sw	s8,72(sp)
   130e0:	06112623          	sw	ra,108(sp)
   130e4:	06912223          	sw	s1,100(sp)
   130e8:	07212023          	sw	s2,96(sp)
   130ec:	05312e23          	sw	s3,92(sp)
   130f0:	05412c23          	sw	s4,88(sp)
   130f4:	05512a23          	sw	s5,84(sp)
   130f8:	05612823          	sw	s6,80(sp)
   130fc:	05912223          	sw	s9,68(sp)
   13100:	05a12023          	sw	s10,64(sp)
   13104:	03b12e23          	sw	s11,60(sp)
   13108:	b301ab83          	lw	s7,-1232(gp) # 81ea8 <_dl_pagesize>
   1310c:	00050413          	mv	s0,a0
   13110:	1c058e63          	beqz	a1,132ec <sysmalloc+0x21c>
   13114:	00081ab7          	lui	s5,0x81
   13118:	000a8a93          	mv	s5,s5
   1311c:	008aa783          	lw	a5,8(s5) # 81008 <mp_+0x8>
   13120:	00058a13          	mv	s4,a1
   13124:	16f57263          	bgeu	a0,a5,13288 <sysmalloc+0x1b8>
   13128:	00000813          	li	a6,0
   1312c:	012b8713          	addi	a4,s7,18
   13130:	00870733          	add	a4,a4,s0
   13134:	417007b3          	neg	a5,s7
   13138:	038a0b13          	addi	s6,s4,56
   1313c:	fffb8d93          	addi	s11,s7,-1
   13140:	01040c93          	addi	s9,s0,16
   13144:	040a8d13          	addi	s10,s5,64
   13148:	02840893          	addi	a7,s0,40
   1314c:	00f779b3          	and	s3,a4,a5
   13150:	038a2483          	lw	s1,56(s4)
   13154:	0044a783          	lw	a5,4(s1)
   13158:	ff87f913          	andi	s2,a5,-8
   1315c:	01248333          	add	t1,s1,s2
   13160:	21648c63          	beq	s1,s6,13378 <sysmalloc+0x2a8>
   13164:	00f00713          	li	a4,15
   13168:	0d277263          	bgeu	a4,s2,1322c <sysmalloc+0x15c>
   1316c:	0017f793          	andi	a5,a5,1
   13170:	0a078e63          	beqz	a5,1322c <sysmalloc+0x15c>
   13174:	01b377b3          	and	a5,t1,s11
   13178:	0a079a63          	bnez	a5,1322c <sysmalloc+0x15c>
   1317c:	21997263          	bgeu	s2,s9,13380 <sysmalloc+0x2b0>
   13180:	3daa0c63          	beq	s4,s10,13558 <sysmalloc+0x488>
   13184:	fff006b7          	lui	a3,0xfff00
   13188:	412c8633          	sub	a2,s9,s2
   1318c:	00d4f6b3          	and	a3,s1,a3
   13190:	22c05c63          	blez	a2,133c8 <sysmalloc+0x2f8>
   13194:	b301a703          	lw	a4,-1232(gp) # 81ea8 <_dl_pagesize>
   13198:	0086a303          	lw	t1,8(a3) # fff00008 <__BSS_END__+0xffe7d490>
   1319c:	001005b7          	lui	a1,0x100
   131a0:	fff70793          	addi	a5,a4,-1
   131a4:	00c787b3          	add	a5,a5,a2
   131a8:	40e00733          	neg	a4,a4
   131ac:	00e7f7b3          	and	a5,a5,a4
   131b0:	00678733          	add	a4,a5,t1
   131b4:	20e5ea63          	bltu	a1,a4,133c8 <sysmalloc+0x2f8>
   131b8:	00c6a503          	lw	a0,12(a3)
   131bc:	30e56063          	bltu	a0,a4,134bc <sysmalloc+0x3ec>
   131c0:	00048993          	mv	s3,s1
   131c4:	454a2783          	lw	a5,1108(s4)
   131c8:	00e68633          	add	a2,a3,a4
   131cc:	00e6a423          	sw	a4,8(a3)
   131d0:	406787b3          	sub	a5,a5,t1
   131d4:	00e787b3          	add	a5,a5,a4
   131d8:	40960733          	sub	a4,a2,s1
   131dc:	44fa2a23          	sw	a5,1108(s4)
   131e0:	00176713          	ori	a4,a4,1
   131e4:	00e4a223          	sw	a4,4(s1)
   131e8:	458a2703          	lw	a4,1112(s4)
   131ec:	00f77463          	bgeu	a4,a5,131f4 <sysmalloc+0x124>
   131f0:	44fa2c23          	sw	a5,1112(s4)
   131f4:	0049a783          	lw	a5,4(s3)
   131f8:	ff87f793          	andi	a5,a5,-8
   131fc:	3597e063          	bltu	a5,s9,1353c <sysmalloc+0x46c>
   13200:	00898733          	add	a4,s3,s0
   13204:	02ea2c23          	sw	a4,56(s4)
   13208:	408787b3          	sub	a5,a5,s0
   1320c:	01aa0463          	beq	s4,s10,13214 <sysmalloc+0x144>
   13210:	00446413          	ori	s0,s0,4
   13214:	00146413          	ori	s0,s0,1
   13218:	0089a223          	sw	s0,4(s3)
   1321c:	0017e793          	ori	a5,a5,1
   13220:	00f72223          	sw	a5,4(a4)
   13224:	00898513          	addi	a0,s3,8
   13228:	2280006f          	j	13450 <sysmalloc+0x380>
   1322c:	b141a603          	lw	a2,-1260(gp) # 81e8c <__progname>
   13230:	00064783          	lbu	a5,0(a2)
   13234:	0a079663          	bnez	a5,132e0 <sysmalloc+0x210>
   13238:	000676b7          	lui	a3,0x67
   1323c:	a9c68693          	addi	a3,a3,-1380 # 66a9c <expected2.3+0x8>
   13240:	000638b7          	lui	a7,0x63
   13244:	00064837          	lui	a6,0x64
   13248:	000017b7          	lui	a5,0x1
   1324c:	00064737          	lui	a4,0x64
   13250:	000635b7          	lui	a1,0x63
   13254:	00064537          	lui	a0,0x64
   13258:	59088893          	addi	a7,a7,1424 # 63590 <__PRETTY_FUNCTION__.1+0x14>
   1325c:	63c80813          	addi	a6,a6,1596 # 6463c <__PRETTY_FUNCTION__.5>
   13260:	95578793          	addi	a5,a5,-1707 # 955 <catch_hook+0x929>
   13264:	9c070713          	addi	a4,a4,-1600 # 639c0 <__PRETTY_FUNCTION__.1+0x444>
   13268:	59458593          	addi	a1,a1,1428 # 63594 <__PRETTY_FUNCTION__.1+0x18>
   1326c:	db850513          	addi	a0,a0,-584 # 63db8 <__PRETTY_FUNCTION__.1+0x83c>
   13270:	00a12023          	sw	a0,0(sp)
   13274:	00000513          	li	a0,0
   13278:	2dd120ef          	jal	ra,25d54 <__fxprintf>
   1327c:	b7c1a503          	lw	a0,-1156(gp) # 81ef4 <_IO_stderr>
   13280:	6b5120ef          	jal	ra,26134 <_IO_fflush>
   13284:	f35fc0ef          	jal	ra,101b8 <abort>
   13288:	014aa703          	lw	a4,20(s5)
   1328c:	018aa783          	lw	a5,24(s5)
   13290:	e8f75ce3          	bge	a4,a5,13128 <sysmalloc+0x58>
   13294:	012b8493          	addi	s1,s7,18
   13298:	00a484b3          	add	s1,s1,a0
   1329c:	417007b3          	neg	a5,s7
   132a0:	00f4f4b3          	and	s1,s1,a5
   132a4:	00100813          	li	a6,1
   132a8:	e89572e3          	bgeu	a0,s1,1312c <sysmalloc+0x5c>
   132ac:	00000793          	li	a5,0
   132b0:	fff00713          	li	a4,-1
   132b4:	02200693          	li	a3,34
   132b8:	00300613          	li	a2,3
   132bc:	00048593          	mv	a1,s1
   132c0:	00000513          	li	a0,0
   132c4:	01012e23          	sw	a6,28(sp)
   132c8:	650040ef          	jal	ra,17918 <__mmap>
   132cc:	fff00713          	li	a4,-1
   132d0:	00050793          	mv	a5,a0
   132d4:	04e51e63          	bne	a0,a4,13330 <sysmalloc+0x260>
   132d8:	01c12803          	lw	a6,28(sp)
   132dc:	e51ff06f          	j	1312c <sysmalloc+0x5c>
   132e0:	000638b7          	lui	a7,0x63
   132e4:	59088693          	addi	a3,a7,1424 # 63590 <__PRETTY_FUNCTION__.1+0x14>
   132e8:	f5dff06f          	j	13244 <sysmalloc+0x174>
   132ec:	012b8493          	addi	s1,s7,18
   132f0:	00a484b3          	add	s1,s1,a0
   132f4:	41700bb3          	neg	s7,s7
   132f8:	0174f4b3          	and	s1,s1,s7
   132fc:	14957863          	bgeu	a0,s1,1344c <sysmalloc+0x37c>
   13300:	00000793          	li	a5,0
   13304:	fff00713          	li	a4,-1
   13308:	02200693          	li	a3,34
   1330c:	00300613          	li	a2,3
   13310:	00048593          	mv	a1,s1
   13314:	00000513          	li	a0,0
   13318:	600040ef          	jal	ra,17918 <__mmap>
   1331c:	fff00713          	li	a4,-1
   13320:	00050793          	mv	a5,a0
   13324:	12e50463          	beq	a0,a4,1344c <sysmalloc+0x37c>
   13328:	00081ab7          	lui	s5,0x81
   1332c:	000a8a93          	mv	s5,s5
   13330:	00878513          	addi	a0,a5,8
   13334:	00f57693          	andi	a3,a0,15
   13338:	14069a63          	bnez	a3,1348c <sysmalloc+0x3bc>
   1333c:	0024e713          	ori	a4,s1,2
   13340:	0007a023          	sw	zero,0(a5)
   13344:	00e7a223          	sw	a4,4(a5)
   13348:	00100713          	li	a4,1
   1334c:	014a8693          	addi	a3,s5,20 # 81014 <mp_+0x14>
   13350:	04e6a7af          	amoadd.w.aq	a5,a4,(a3)
   13354:	00178793          	addi	a5,a5,1
   13358:	01ca8713          	addi	a4,s5,28
   1335c:	e4f727af          	amomaxu.w.aq	a5,a5,(a4)
   13360:	024a8713          	addi	a4,s5,36
   13364:	049727af          	amoadd.w.aq	a5,s1,(a4)
   13368:	009784b3          	add	s1,a5,s1
   1336c:	028a8793          	addi	a5,s5,40
   13370:	e497a4af          	amomaxu.w.aq	s1,s1,(a5)
   13374:	0dc0006f          	j	13450 <sysmalloc+0x380>
   13378:	de0916e3          	bnez	s2,13164 <sysmalloc+0x94>
   1337c:	e19962e3          	bltu	s2,s9,13180 <sysmalloc+0xb0>
   13380:	b141a603          	lw	a2,-1260(gp) # 81e8c <__progname>
   13384:	00064783          	lbu	a5,0(a2)
   13388:	12079463          	bnez	a5,134b0 <sysmalloc+0x3e0>
   1338c:	000676b7          	lui	a3,0x67
   13390:	a9c68693          	addi	a3,a3,-1380 # 66a9c <expected2.3+0x8>
   13394:	000638b7          	lui	a7,0x63
   13398:	00064837          	lui	a6,0x64
   1339c:	000017b7          	lui	a5,0x1
   133a0:	00064737          	lui	a4,0x64
   133a4:	000635b7          	lui	a1,0x63
   133a8:	00064537          	lui	a0,0x64
   133ac:	59088893          	addi	a7,a7,1424 # 63590 <__PRETTY_FUNCTION__.1+0x14>
   133b0:	63c80813          	addi	a6,a6,1596 # 6463c <__PRETTY_FUNCTION__.5>
   133b4:	95b78793          	addi	a5,a5,-1701 # 95b <catch_hook+0x92f>
   133b8:	9c070713          	addi	a4,a4,-1600 # 639c0 <__PRETTY_FUNCTION__.1+0x444>
   133bc:	59458593          	addi	a1,a1,1428 # 63594 <__PRETTY_FUNCTION__.1+0x18>
   133c0:	e6050513          	addi	a0,a0,-416 # 63e60 <__PRETTY_FUNCTION__.1+0x8e4>
   133c4:	eadff06f          	j	13270 <sysmalloc+0x1a0>
   133c8:	004aa583          	lw	a1,4(s5)
   133cc:	00088513          	mv	a0,a7
   133d0:	03012023          	sw	a6,32(sp)
   133d4:	01112e23          	sw	a7,28(sp)
   133d8:	02d12223          	sw	a3,36(sp)
   133dc:	d69fd0ef          	jal	ra,11144 <new_heap>
   133e0:	01c12883          	lw	a7,28(sp)
   133e4:	02012803          	lw	a6,32(sp)
   133e8:	32050663          	beqz	a0,13714 <sysmalloc+0x644>
   133ec:	454a2783          	lw	a5,1108(s4)
   133f0:	00852603          	lw	a2,8(a0)
   133f4:	02412683          	lw	a3,36(sp)
   133f8:	ff090913          	addi	s2,s2,-16
   133fc:	01452023          	sw	s4,0(a0)
   13400:	00d52223          	sw	a3,4(a0)
   13404:	00f607b3          	add	a5,a2,a5
   13408:	01850993          	addi	s3,a0,24
   1340c:	fe860613          	addi	a2,a2,-24
   13410:	ff097913          	andi	s2,s2,-16
   13414:	44fa2a23          	sw	a5,1108(s4)
   13418:	033a2c23          	sw	s3,56(s4)
   1341c:	00166613          	ori	a2,a2,1
   13420:	00890693          	addi	a3,s2,8
   13424:	00c52e23          	sw	a2,28(a0)
   13428:	00d48733          	add	a4,s1,a3
   1342c:	00100613          	li	a2,1
   13430:	00c72223          	sw	a2,4(a4)
   13434:	00f00613          	li	a2,15
   13438:	0d266663          	bltu	a2,s2,13504 <sysmalloc+0x434>
   1343c:	0016e613          	ori	a2,a3,1
   13440:	00c4a223          	sw	a2,4(s1)
   13444:	00d72023          	sw	a3,0(a4)
   13448:	da1ff06f          	j	131e8 <sysmalloc+0x118>
   1344c:	00000513          	li	a0,0
   13450:	06c12083          	lw	ra,108(sp)
   13454:	06812403          	lw	s0,104(sp)
   13458:	06412483          	lw	s1,100(sp)
   1345c:	06012903          	lw	s2,96(sp)
   13460:	05c12983          	lw	s3,92(sp)
   13464:	05812a03          	lw	s4,88(sp)
   13468:	05412a83          	lw	s5,84(sp)
   1346c:	05012b03          	lw	s6,80(sp)
   13470:	04c12b83          	lw	s7,76(sp)
   13474:	04812c03          	lw	s8,72(sp)
   13478:	04412c83          	lw	s9,68(sp)
   1347c:	04012d03          	lw	s10,64(sp)
   13480:	03c12d83          	lw	s11,60(sp)
   13484:	07010113          	addi	sp,sp,112
   13488:	00008067          	ret
   1348c:	01000713          	li	a4,16
   13490:	40d70733          	sub	a4,a4,a3
   13494:	40e486b3          	sub	a3,s1,a4
   13498:	00e78533          	add	a0,a5,a4
   1349c:	0026e793          	ori	a5,a3,2
   134a0:	00e52023          	sw	a4,0(a0)
   134a4:	00f52223          	sw	a5,4(a0)
   134a8:	00850513          	addi	a0,a0,8
   134ac:	e9dff06f          	j	13348 <sysmalloc+0x278>
   134b0:	000638b7          	lui	a7,0x63
   134b4:	59088693          	addi	a3,a7,1424 # 63590 <__PRETTY_FUNCTION__.1+0x14>
   134b8:	ee1ff06f          	j	13398 <sysmalloc+0x2c8>
   134bc:	40a705b3          	sub	a1,a4,a0
   134c0:	00300613          	li	a2,3
   134c4:	00a68533          	add	a0,a3,a0
   134c8:	03112223          	sw	a7,36(sp)
   134cc:	03012023          	sw	a6,32(sp)
   134d0:	00d12e23          	sw	a3,28(sp)
   134d4:	02612623          	sw	t1,44(sp)
   134d8:	02e12423          	sw	a4,40(sp)
   134dc:	4b0040ef          	jal	ra,1798c <__mprotect>
   134e0:	01c12683          	lw	a3,28(sp)
   134e4:	02012803          	lw	a6,32(sp)
   134e8:	02412883          	lw	a7,36(sp)
   134ec:	ec051ee3          	bnez	a0,133c8 <sysmalloc+0x2f8>
   134f0:	02812703          	lw	a4,40(sp)
   134f4:	038a2983          	lw	s3,56(s4)
   134f8:	02c12303          	lw	t1,44(sp)
   134fc:	00e6a623          	sw	a4,12(a3)
   13500:	cc5ff06f          	j	131c4 <sysmalloc+0xf4>
   13504:	012487b3          	add	a5,s1,s2
   13508:	00900693          	li	a3,9
   1350c:	00d7a223          	sw	a3,4(a5)
   13510:	00800793          	li	a5,8
   13514:	00f72023          	sw	a5,0(a4)
   13518:	00596913          	ori	s2,s2,5
   1351c:	0124a223          	sw	s2,4(s1)
   13520:	00100613          	li	a2,1
   13524:	00048593          	mv	a1,s1
   13528:	000a0513          	mv	a0,s4
   1352c:	9e0ff0ef          	jal	ra,1270c <_int_free>
   13530:	454a2783          	lw	a5,1108(s4)
   13534:	038a2983          	lw	s3,56(s4)
   13538:	cb1ff06f          	j	131e8 <sysmalloc+0x118>
   1353c:	0006f797          	auipc	a5,0x6f
   13540:	8e47a783          	lw	a5,-1820(a5) # 81e20 <_GLOBAL_OFFSET_TABLE_+0x30>
   13544:	00c00713          	li	a4,12
   13548:	00000513          	li	a0,0
   1354c:	004787b3          	add	a5,a5,tp
   13550:	00e7a023          	sw	a4,0(a5)
   13554:	efdff06f          	j	13450 <sysmalloc+0x380>
   13558:	004aab03          	lw	s6,4(s5)
   1355c:	044aa783          	lw	a5,68(s5)
   13560:	fffb8c13          	addi	s8,s7,-1
   13564:	010b0b13          	addi	s6,s6,16
   13568:	018b0b33          	add	s6,s6,s8
   1356c:	0027f793          	andi	a5,a5,2
   13570:	008b0b33          	add	s6,s6,s0
   13574:	41700bb3          	neg	s7,s7
   13578:	12079c63          	bnez	a5,136b0 <sysmalloc+0x5e0>
   1357c:	412b0b33          	sub	s6,s6,s2
   13580:	017b7b33          	and	s6,s6,s7
   13584:	1f605463          	blez	s6,1376c <sysmalloc+0x69c>
   13588:	b0c1a783          	lw	a5,-1268(gp) # 81e84 <__morecore>
   1358c:	000b0513          	mv	a0,s6
   13590:	00612e23          	sw	t1,28(sp)
   13594:	000780e7          	jalr	a5
   13598:	01c12303          	lw	t1,28(sp)
   1359c:	00050993          	mv	s3,a0
   135a0:	1c050063          	beqz	a0,13760 <sysmalloc+0x690>
   135a4:	c2c1a783          	lw	a5,-980(gp) # 81fa4 <__after_morecore_hook>
   135a8:	00000d93          	li	s11,0
   135ac:	24079c63          	bnez	a5,13804 <sysmalloc+0x734>
   135b0:	02caa783          	lw	a5,44(s5)
   135b4:	1c078463          	beqz	a5,1377c <sysmalloc+0x6ac>
   135b8:	494aa783          	lw	a5,1172(s5)
   135bc:	00fb07b3          	add	a5,s6,a5
   135c0:	48faaa23          	sw	a5,1172(s5)
   135c4:	1d330063          	beq	t1,s3,13784 <sysmalloc+0x6b4>
   135c8:	044aa703          	lw	a4,68(s5)
   135cc:	00277713          	andi	a4,a4,2
   135d0:	14071a63          	bnez	a4,13724 <sysmalloc+0x654>
   135d4:	00090a63          	beqz	s2,135e8 <sysmalloc+0x518>
   135d8:	2869ee63          	bltu	s3,t1,13874 <sysmalloc+0x7a4>
   135dc:	40698333          	sub	t1,s3,t1
   135e0:	00f307b3          	add	a5,t1,a5
   135e4:	48faaa23          	sw	a5,1172(s5)
   135e8:	00898793          	addi	a5,s3,8
   135ec:	00f7f713          	andi	a4,a5,15
   135f0:	1a070663          	beqz	a4,1379c <sysmalloc+0x6cc>
   135f4:	01000793          	li	a5,16
   135f8:	40e787b3          	sub	a5,a5,a4
   135fc:	00f986b3          	add	a3,s3,a5
   13600:	012787b3          	add	a5,a5,s2
   13604:	00fb0b33          	add	s6,s6,a5
   13608:	016989b3          	add	s3,s3,s6
   1360c:	01898733          	add	a4,s3,s8
   13610:	01777733          	and	a4,a4,s7
   13614:	413789b3          	sub	s3,a5,s3
   13618:	01370b33          	add	s6,a4,s3
   1361c:	180b4663          	bltz	s6,137a8 <sysmalloc+0x6d8>
   13620:	b0c1a783          	lw	a5,-1268(gp) # 81e84 <__morecore>
   13624:	000b0513          	mv	a0,s6
   13628:	00d12e23          	sw	a3,28(sp)
   1362c:	000780e7          	jalr	a5
   13630:	01c12683          	lw	a3,28(sp)
   13634:	00050d93          	mv	s11,a0
   13638:	1a050c63          	beqz	a0,137f0 <sysmalloc+0x720>
   1363c:	c2c1a783          	lw	a5,-980(gp) # 81fa4 <__after_morecore_hook>
   13640:	1c079e63          	bnez	a5,1381c <sysmalloc+0x74c>
   13644:	494aa783          	lw	a5,1172(s5)
   13648:	00068993          	mv	s3,a3
   1364c:	00fb07b3          	add	a5,s6,a5
   13650:	413d8733          	sub	a4,s11,s3
   13654:	01670733          	add	a4,a4,s6
   13658:	073aac23          	sw	s3,120(s5)
   1365c:	00176713          	ori	a4,a4,1
   13660:	00e9a223          	sw	a4,4(s3)
   13664:	48faaa23          	sw	a5,1172(s5)
   13668:	b80900e3          	beqz	s2,131e8 <sysmalloc+0x118>
   1366c:	ff090713          	addi	a4,s2,-16
   13670:	ff077713          	andi	a4,a4,-16
   13674:	00176693          	ori	a3,a4,1
   13678:	00d4a223          	sw	a3,4(s1)
   1367c:	00900613          	li	a2,9
   13680:	00e486b3          	add	a3,s1,a4
   13684:	00c6a223          	sw	a2,4(a3)
   13688:	00c6a623          	sw	a2,12(a3)
   1368c:	00f00693          	li	a3,15
   13690:	b4e6fce3          	bgeu	a3,a4,131e8 <sysmalloc+0x118>
   13694:	00100613          	li	a2,1
   13698:	00048593          	mv	a1,s1
   1369c:	000d0513          	mv	a0,s10
   136a0:	86cff0ef          	jal	ra,1270c <_int_free>
   136a4:	494aa783          	lw	a5,1172(s5)
   136a8:	078aa983          	lw	s3,120(s5)
   136ac:	b3dff06f          	j	131e8 <sysmalloc+0x118>
   136b0:	016bfb33          	and	s6,s7,s6
   136b4:	ed604ae3          	bgtz	s6,13588 <sysmalloc+0x4b8>
   136b8:	001007b7          	lui	a5,0x100
   136bc:	00fb7463          	bgeu	s6,a5,136c4 <sysmalloc+0x5f4>
   136c0:	00100b37          	lui	s6,0x100
   136c4:	ff6470e3          	bgeu	s0,s6,136a4 <sysmalloc+0x5d4>
   136c8:	00000793          	li	a5,0
   136cc:	fff00713          	li	a4,-1
   136d0:	02200693          	li	a3,34
   136d4:	00300613          	li	a2,3
   136d8:	000b0593          	mv	a1,s6
   136dc:	00000513          	li	a0,0
   136e0:	00612e23          	sw	t1,28(sp)
   136e4:	234040ef          	jal	ra,17918 <__mmap>
   136e8:	fff00793          	li	a5,-1
   136ec:	01c12303          	lw	t1,28(sp)
   136f0:	00050993          	mv	s3,a0
   136f4:	faf508e3          	beq	a0,a5,136a4 <sysmalloc+0x5d4>
   136f8:	044aa783          	lw	a5,68(s5)
   136fc:	01650db3          	add	s11,a0,s6
   13700:	0027e793          	ori	a5,a5,2
   13704:	04faa223          	sw	a5,68(s5)
   13708:	ea0514e3          	bnez	a0,135b0 <sysmalloc+0x4e0>
   1370c:	494aa783          	lw	a5,1172(s5)
   13710:	f99ff06f          	j	136a8 <sysmalloc+0x5d8>
   13714:	12080263          	beqz	a6,13838 <sysmalloc+0x768>
   13718:	454a2783          	lw	a5,1108(s4)
   1371c:	038a2983          	lw	s3,56(s4)
   13720:	ac9ff06f          	j	131e8 <sysmalloc+0x118>
   13724:	00898713          	addi	a4,s3,8
   13728:	00f77713          	andi	a4,a4,15
   1372c:	00070663          	beqz	a4,13738 <sysmalloc+0x668>
   13730:	40e989b3          	sub	s3,s3,a4
   13734:	01098993          	addi	s3,s3,16
   13738:	00000b13          	li	s6,0
   1373c:	f00d9ae3          	bnez	s11,13650 <sysmalloc+0x580>
   13740:	b0c1a783          	lw	a5,-1268(gp) # 81e84 <__morecore>
   13744:	00000513          	li	a0,0
   13748:	000780e7          	jalr	a5 # 100000 <__BSS_END__+0x7d488>
   1374c:	00050d93          	mv	s11,a0
   13750:	494aa783          	lw	a5,1172(s5)
   13754:	f40d8ae3          	beqz	s11,136a8 <sysmalloc+0x5d8>
   13758:	00000b13          	li	s6,0
   1375c:	ef5ff06f          	j	13650 <sysmalloc+0x580>
   13760:	044aa783          	lw	a5,68(s5)
   13764:	0027f793          	andi	a5,a5,2
   13768:	f40798e3          	bnez	a5,136b8 <sysmalloc+0x5e8>
   1376c:	018907b3          	add	a5,s2,s8
   13770:	01678b33          	add	s6,a5,s6
   13774:	017b7b33          	and	s6,s6,s7
   13778:	f41ff06f          	j	136b8 <sysmalloc+0x5e8>
   1377c:	033aa623          	sw	s3,44(s5)
   13780:	e39ff06f          	j	135b8 <sysmalloc+0x4e8>
   13784:	e40d92e3          	bnez	s11,135c8 <sysmalloc+0x4f8>
   13788:	01690b33          	add	s6,s2,s6
   1378c:	001b6713          	ori	a4,s6,1
   13790:	078aa983          	lw	s3,120(s5)
   13794:	00e4a223          	sw	a4,4(s1)
   13798:	a51ff06f          	j	131e8 <sysmalloc+0x118>
   1379c:	00090793          	mv	a5,s2
   137a0:	00098693          	mv	a3,s3
   137a4:	e61ff06f          	j	13604 <sysmalloc+0x534>
   137a8:	b141a603          	lw	a2,-1260(gp) # 81e8c <__progname>
   137ac:	00064783          	lbu	a5,0(a2)
   137b0:	06079063          	bnez	a5,13810 <sysmalloc+0x740>
   137b4:	000676b7          	lui	a3,0x67
   137b8:	a9c68693          	addi	a3,a3,-1380 # 66a9c <expected2.3+0x8>
   137bc:	000638b7          	lui	a7,0x63
   137c0:	00064837          	lui	a6,0x64
   137c4:	000017b7          	lui	a5,0x1
   137c8:	00064737          	lui	a4,0x64
   137cc:	000635b7          	lui	a1,0x63
   137d0:	00064537          	lui	a0,0x64
   137d4:	59088893          	addi	a7,a7,1424 # 63590 <__PRETTY_FUNCTION__.1+0x14>
   137d8:	63c80813          	addi	a6,a6,1596 # 6463c <__PRETTY_FUNCTION__.5>
   137dc:	a3278793          	addi	a5,a5,-1486 # a32 <catch_hook+0xa06>
   137e0:	9c070713          	addi	a4,a4,-1600 # 639c0 <__PRETTY_FUNCTION__.1+0x444>
   137e4:	59458593          	addi	a1,a1,1428 # 63594 <__PRETTY_FUNCTION__.1+0x18>
   137e8:	ec050513          	addi	a0,a0,-320 # 63ec0 <__PRETTY_FUNCTION__.1+0x944>
   137ec:	a85ff06f          	j	13270 <sysmalloc+0x1a0>
   137f0:	b0c1a783          	lw	a5,-1268(gp) # 81e84 <__morecore>
   137f4:	00068993          	mv	s3,a3
   137f8:	000780e7          	jalr	a5
   137fc:	00050d93          	mv	s11,a0
   13800:	f51ff06f          	j	13750 <sysmalloc+0x680>
   13804:	000780e7          	jalr	a5
   13808:	01c12303          	lw	t1,28(sp)
   1380c:	da5ff06f          	j	135b0 <sysmalloc+0x4e0>
   13810:	000638b7          	lui	a7,0x63
   13814:	59088693          	addi	a3,a7,1424 # 63590 <__PRETTY_FUNCTION__.1+0x14>
   13818:	fa9ff06f          	j	137c0 <sysmalloc+0x6f0>
   1381c:	00d12e23          	sw	a3,28(sp)
   13820:	000780e7          	jalr	a5
   13824:	494aa783          	lw	a5,1172(s5)
   13828:	01c12683          	lw	a3,28(sp)
   1382c:	00fb07b3          	add	a5,s6,a5
   13830:	00068993          	mv	s3,a3
   13834:	e1dff06f          	j	13650 <sysmalloc+0x580>
   13838:	00098493          	mv	s1,s3
   1383c:	03347863          	bgeu	s0,s3,1386c <sysmalloc+0x79c>
   13840:	00000793          	li	a5,0
   13844:	fff00713          	li	a4,-1
   13848:	02200693          	li	a3,34
   1384c:	00300613          	li	a2,3
   13850:	00098593          	mv	a1,s3
   13854:	01112e23          	sw	a7,28(sp)
   13858:	0c0040ef          	jal	ra,17918 <__mmap>
   1385c:	fff00713          	li	a4,-1
   13860:	01c12883          	lw	a7,28(sp)
   13864:	00050793          	mv	a5,a0
   13868:	ace514e3          	bne	a0,a4,13330 <sysmalloc+0x260>
   1386c:	00100813          	li	a6,1
   13870:	8e1ff06f          	j	13150 <sysmalloc+0x80>
   13874:	00064537          	lui	a0,0x64
   13878:	e9c50513          	addi	a0,a0,-356 # 63e9c <__PRETTY_FUNCTION__.1+0x920>
   1387c:	841fd0ef          	jal	ra,110bc <malloc_printerr>

00013880 <free_check>:
   13880:	0e050663          	beqz	a0,1396c <free_check+0xec>
   13884:	ff010113          	addi	sp,sp,-16
   13888:	00812423          	sw	s0,8(sp)
   1388c:	00081437          	lui	s0,0x81
   13890:	00040413          	mv	s0,s0
   13894:	00912223          	sw	s1,4(sp)
   13898:	00112623          	sw	ra,12(sp)
   1389c:	01212023          	sw	s2,0(sp)
   138a0:	00050493          	mv	s1,a0
   138a4:	00100713          	li	a4,1
   138a8:	04040693          	addi	a3,s0,64 # 81040 <main_arena>
   138ac:	1006a7af          	lr.w	a5,(a3)
   138b0:	00079663          	bnez	a5,138bc <free_check+0x3c>
   138b4:	1ce6a62f          	sc.w.aq	a2,a4,(a3)
   138b8:	fe061ae3          	bnez	a2,138ac <free_check+0x2c>
   138bc:	0a079a63          	bnez	a5,13970 <free_check+0xf0>
   138c0:	00000593          	li	a1,0
   138c4:	00048513          	mv	a0,s1
   138c8:	cd4fd0ef          	jal	ra,10d9c <mem2chunk_check>
   138cc:	00050793          	mv	a5,a0
   138d0:	0c050463          	beqz	a0,13998 <free_check+0x118>
   138d4:	00452483          	lw	s1,4(a0)
   138d8:	0024f493          	andi	s1,s1,2
   138dc:	04049063          	bnez	s1,1391c <free_check+0x9c>
   138e0:	04040913          	addi	s2,s0,64
   138e4:	00050593          	mv	a1,a0
   138e8:	00100613          	li	a2,1
   138ec:	00090513          	mv	a0,s2
   138f0:	e1dfe0ef          	jal	ra,1270c <_int_free>
   138f4:	0f50000f          	fence	iorw,ow
   138f8:	089924af          	amoswap.w	s1,s1,(s2)
   138fc:	00100793          	li	a5,1
   13900:	0497c863          	blt	a5,s1,13950 <free_check+0xd0>
   13904:	00c12083          	lw	ra,12(sp)
   13908:	00812403          	lw	s0,8(sp)
   1390c:	00412483          	lw	s1,4(sp)
   13910:	00012903          	lw	s2,0(sp)
   13914:	01010113          	addi	sp,sp,16
   13918:	00008067          	ret
   1391c:	00000713          	li	a4,0
   13920:	04040693          	addi	a3,s0,64
   13924:	0f50000f          	fence	iorw,ow
   13928:	08e6a72f          	amoswap.w	a4,a4,(a3)
   1392c:	00100693          	li	a3,1
   13930:	04e6c663          	blt	a3,a4,1397c <free_check+0xfc>
   13934:	00812403          	lw	s0,8(sp)
   13938:	00c12083          	lw	ra,12(sp)
   1393c:	00412483          	lw	s1,4(sp)
   13940:	00012903          	lw	s2,0(sp)
   13944:	00078513          	mv	a0,a5
   13948:	01010113          	addi	sp,sp,16
   1394c:	b58fe06f          	j	11ca4 <munmap_chunk>
   13950:	06200893          	li	a7,98
   13954:	00090513          	mv	a0,s2
   13958:	08100593          	li	a1,129
   1395c:	00100613          	li	a2,1
   13960:	00000693          	li	a3,0
   13964:	00000073          	ecall
   13968:	f9dff06f          	j	13904 <free_check+0x84>
   1396c:	00008067          	ret
   13970:	00068513          	mv	a0,a3
   13974:	7ac040ef          	jal	ra,18120 <__lll_lock_wait_private>
   13978:	f49ff06f          	j	138c0 <free_check+0x40>
   1397c:	06200893          	li	a7,98
   13980:	04040513          	addi	a0,s0,64
   13984:	08100593          	li	a1,129
   13988:	00100613          	li	a2,1
   1398c:	00000693          	li	a3,0
   13990:	00000073          	ecall
   13994:	fa1ff06f          	j	13934 <free_check+0xb4>
   13998:	00064537          	lui	a0,0x64
   1399c:	ac450513          	addi	a0,a0,-1340 # 63ac4 <__PRETTY_FUNCTION__.1+0x548>
   139a0:	f1cfd0ef          	jal	ra,110bc <malloc_printerr>

000139a4 <_int_malloc>:
   139a4:	f7010113          	addi	sp,sp,-144
   139a8:	08812423          	sw	s0,136(sp)
   139ac:	08112623          	sw	ra,140(sp)
   139b0:	08912223          	sw	s1,132(sp)
   139b4:	09212023          	sw	s2,128(sp)
   139b8:	07312e23          	sw	s3,124(sp)
   139bc:	07412c23          	sw	s4,120(sp)
   139c0:	07512a23          	sw	s5,116(sp)
   139c4:	07612823          	sw	s6,112(sp)
   139c8:	07712623          	sw	s7,108(sp)
   139cc:	07812423          	sw	s8,104(sp)
   139d0:	07912223          	sw	s9,100(sp)
   139d4:	07a12023          	sw	s10,96(sp)
   139d8:	05b12e23          	sw	s11,92(sp)
   139dc:	01358413          	addi	s0,a1,19
   139e0:	00f00793          	li	a5,15
   139e4:	0487ee63          	bltu	a5,s0,13a40 <_int_malloc+0x9c>
   139e8:	0006e797          	auipc	a5,0x6e
   139ec:	4387a783          	lw	a5,1080(a5) # 81e20 <_GLOBAL_OFFSET_TABLE_+0x30>
   139f0:	00c00713          	li	a4,12
   139f4:	00000913          	li	s2,0
   139f8:	004787b3          	add	a5,a5,tp
   139fc:	00e7a023          	sw	a4,0(a5)
   13a00:	08c12083          	lw	ra,140(sp)
   13a04:	08812403          	lw	s0,136(sp)
   13a08:	08412483          	lw	s1,132(sp)
   13a0c:	07c12983          	lw	s3,124(sp)
   13a10:	07812a03          	lw	s4,120(sp)
   13a14:	07412a83          	lw	s5,116(sp)
   13a18:	07012b03          	lw	s6,112(sp)
   13a1c:	06c12b83          	lw	s7,108(sp)
   13a20:	06812c03          	lw	s8,104(sp)
   13a24:	06412c83          	lw	s9,100(sp)
   13a28:	06012d03          	lw	s10,96(sp)
   13a2c:	05c12d83          	lw	s11,92(sp)
   13a30:	00090513          	mv	a0,s2
   13a34:	08012903          	lw	s2,128(sp)
   13a38:	09010113          	addi	sp,sp,144
   13a3c:	00008067          	ret
   13a40:	ff047413          	andi	s0,s0,-16
   13a44:	00058993          	mv	s3,a1
   13a48:	fab460e3          	bltu	s0,a1,139e8 <_int_malloc+0x44>
   13a4c:	fdf00793          	li	a5,-33
   13a50:	f887ece3          	bltu	a5,s0,139e8 <_int_malloc+0x44>
   13a54:	00050493          	mv	s1,a0
   13a58:	56050463          	beqz	a0,13fc0 <_int_malloc+0x61c>
   13a5c:	c341a783          	lw	a5,-972(gp) # 81fac <global_max_fast>
   13a60:	0c87e663          	bltu	a5,s0,13b2c <_int_malloc+0x188>
   13a64:	00145693          	srli	a3,s0,0x1
   13a68:	00d506b3          	add	a3,a0,a3
   13a6c:	0046a903          	lw	s2,4(a3)
   13a70:	00345593          	srli	a1,s0,0x3
   13a74:	3a090263          	beqz	s2,13e18 <_int_malloc+0x474>
   13a78:	b6022783          	lw	a5,-1184(tp) # fffffb60 <__BSS_END__+0xfff7cfe8>
   13a7c:	00158613          	addi	a2,a1,1
   13a80:	00261613          	slli	a2,a2,0x2
   13a84:	00892703          	lw	a4,8(s2)
   13a88:	00c50633          	add	a2,a0,a2
   13a8c:	36079a63          	bnez	a5,13e00 <_int_malloc+0x45c>
   13a90:	00e6a223          	sw	a4,4(a3)
   13a94:	00492783          	lw	a5,4(s2)
   13a98:	0037d793          	srli	a5,a5,0x3
   13a9c:	00f592e3          	bne	a1,a5,142a0 <_int_malloc+0x8fc>
   13aa0:	01022783          	lw	a5,16(tp) # 10 <tcache>
   13aa4:	46078e63          	beqz	a5,13f20 <_int_malloc+0x57c>
   13aa8:	00081337          	lui	t1,0x81
   13aac:	00030313          	mv	t1,t1
   13ab0:	03032703          	lw	a4,48(t1) # 81030 <mp_+0x30>
   13ab4:	fff40413          	addi	s0,s0,-1
   13ab8:	00445413          	srli	s0,s0,0x4
   13abc:	46e47263          	bgeu	s0,a4,13f20 <_int_malloc+0x57c>
   13ac0:	008787b3          	add	a5,a5,s0
   13ac4:	0007c783          	lbu	a5,0(a5)
   13ac8:	03832703          	lw	a4,56(t1)
   13acc:	44e7fa63          	bgeu	a5,a4,13f20 <_int_malloc+0x57c>
   13ad0:	00241513          	slli	a0,s0,0x2
   13ad4:	0400006f          	j	13b14 <_int_malloc+0x170>
   13ad8:	00b6a223          	sw	a1,4(a3)
   13adc:	01022703          	lw	a4,16(tp) # 10 <tcache>
   13ae0:	00878813          	addi	a6,a5,8
   13ae4:	00a705b3          	add	a1,a4,a0
   13ae8:	0405a883          	lw	a7,64(a1)
   13aec:	00e7a623          	sw	a4,12(a5)
   13af0:	00870733          	add	a4,a4,s0
   13af4:	0117a423          	sw	a7,8(a5)
   13af8:	0505a023          	sw	a6,64(a1)
   13afc:	00074783          	lbu	a5,0(a4)
   13b00:	00178793          	addi	a5,a5,1
   13b04:	0ff7f793          	andi	a5,a5,255
   13b08:	00f70023          	sb	a5,0(a4)
   13b0c:	03832703          	lw	a4,56(t1)
   13b10:	40e7f863          	bgeu	a5,a4,13f20 <_int_malloc+0x57c>
   13b14:	0046a783          	lw	a5,4(a3)
   13b18:	40078463          	beqz	a5,13f20 <_int_malloc+0x57c>
   13b1c:	b6022703          	lw	a4,-1184(tp) # fffffb60 <__BSS_END__+0xfff7cfe8>
   13b20:	0087a583          	lw	a1,8(a5)
   13b24:	fa070ae3          	beqz	a4,13ad8 <_int_malloc+0x134>
   13b28:	3e00006f          	j	13f08 <_int_malloc+0x564>
   13b2c:	3ef00793          	li	a5,1007
   13b30:	2e87f463          	bgeu	a5,s0,13e18 <_int_malloc+0x474>
   13b34:	00645d13          	srli	s10,s0,0x6
   13b38:	031d0693          	addi	a3,s10,49
   13b3c:	01245793          	srli	a5,s0,0x12
   13b40:	00200713          	li	a4,2
   13b44:	00d12c23          	sw	a3,24(sp)
   13b48:	00945d93          	srli	s11,s0,0x9
   13b4c:	00c45893          	srli	a7,s0,0xc
   13b50:	00f45e13          	srli	t3,s0,0xf
   13b54:	3ef76663          	bltu	a4,a5,13f40 <_int_malloc+0x59c>
   13b58:	07c78513          	addi	a0,a5,124
   13b5c:	077e0593          	addi	a1,t3,119
   13b60:	06e88613          	addi	a2,a7,110
   13b64:	05bd8693          	addi	a3,s11,91
   13b68:	02d00713          	li	a4,45
   13b6c:	04a12223          	sw	a0,68(sp)
   13b70:	02b12e23          	sw	a1,60(sp)
   13b74:	04c12023          	sw	a2,64(sp)
   13b78:	02d12c23          	sw	a3,56(sp)
   13b7c:	01812c83          	lw	s9,24(sp)
   13b80:	03a77663          	bgeu	a4,s10,13bac <_int_malloc+0x208>
   13b84:	01400793          	li	a5,20
   13b88:	00068c93          	mv	s9,a3
   13b8c:	03b7f063          	bgeu	a5,s11,13bac <_int_malloc+0x208>
   13b90:	00a00793          	li	a5,10
   13b94:	00060c93          	mv	s9,a2
   13b98:	0117fa63          	bgeu	a5,a7,13bac <_int_malloc+0x208>
   13b9c:	00400793          	li	a5,4
   13ba0:	00058c93          	mv	s9,a1
   13ba4:	01c7f463          	bgeu	a5,t3,13bac <_int_malloc+0x208>
   13ba8:	00050c93          	mv	s9,a0
   13bac:	0084a783          	lw	a5,8(s1)
   13bb0:	00445713          	srli	a4,s0,0x4
   13bb4:	00170713          	addi	a4,a4,1
   13bb8:	02e12a23          	sw	a4,52(sp)
   13bbc:	38079663          	bnez	a5,13f48 <_int_malloc+0x5a4>
   13bc0:	01022783          	lw	a5,16(tp) # 10 <tcache>
   13bc4:	fff40313          	addi	t1,s0,-1
   13bc8:	00435c13          	srli	s8,t1,0x4
   13bcc:	00000b13          	li	s6,0
   13bd0:	00078c63          	beqz	a5,13be8 <_int_malloc+0x244>
   13bd4:	000817b7          	lui	a5,0x81
   13bd8:	0307ab03          	lw	s6,48(a5) # 81030 <mp_+0x30>
   13bdc:	016c3b33          	sltu	s6,s8,s6
   13be0:	41600b33          	neg	s6,s6
   13be4:	01647b33          	and	s6,s0,s6
   13be8:	01040793          	addi	a5,s0,16
   13bec:	02f12823          	sw	a5,48(sp)
   13bf0:	000027b7          	lui	a5,0x2
   13bf4:	00081ab7          	lui	s5,0x81
   13bf8:	70f78793          	addi	a5,a5,1807 # 270f <catch_hook+0x26e3>
   13bfc:	000a8a93          	mv	s5,s5
   13c00:	03848b93          	addi	s7,s1,56
   13c04:	00000293          	li	t0,0
   13c08:	00f12e23          	sw	a5,28(sp)
   13c0c:	0444a703          	lw	a4,68(s1)
   13c10:	10eb8c63          	beq	s7,a4,13d28 <_int_malloc+0x384>
   13c14:	01022503          	lw	a0,16(tp) # 10 <tcache>
   13c18:	03caa783          	lw	a5,60(s5) # 8103c <mp_+0x3c>
   13c1c:	00000393          	li	t2,0
   13c20:	018506b3          	add	a3,a0,s8
   13c24:	02f12423          	sw	a5,40(sp)
   13c28:	038aa783          	lw	a5,56(s5)
   13c2c:	00000f93          	li	t6,0
   13c30:	00800813          	li	a6,8
   13c34:	02f12223          	sw	a5,36(sp)
   13c38:	002c1793          	slli	a5,s8,0x2
   13c3c:	00f507b3          	add	a5,a0,a5
   13c40:	00700e93          	li	t4,7
   13c44:	3ef00f13          	li	t5,1007
   13c48:	02d12023          	sw	a3,32(sp)
   13c4c:	02f12623          	sw	a5,44(sp)
   13c50:	00472783          	lw	a5,4(a4)
   13c54:	ff87f793          	andi	a5,a5,-8
   13c58:	00f70633          	add	a2,a4,a5
   13c5c:	34f87c63          	bgeu	a6,a5,13fb4 <_int_malloc+0x610>
   13c60:	4544a583          	lw	a1,1108(s1)
   13c64:	34f5e863          	bltu	a1,a5,13fb4 <_int_malloc+0x610>
   13c68:	00462683          	lw	a3,4(a2)
   13c6c:	38def063          	bgeu	t4,a3,13fec <_int_malloc+0x648>
   13c70:	36d5ee63          	bltu	a1,a3,13fec <_int_malloc+0x648>
   13c74:	00062583          	lw	a1,0(a2)
   13c78:	ff85f593          	andi	a1,a1,-8
   13c7c:	5af59263          	bne	a1,a5,14220 <_int_malloc+0x87c>
   13c80:	00c72583          	lw	a1,12(a4)
   13c84:	0085a903          	lw	s2,8(a1)
   13c88:	4ce91663          	bne	s2,a4,14154 <_int_malloc+0x7b0>
   13c8c:	00872903          	lw	s2,8(a4)
   13c90:	4d791263          	bne	s2,s7,14154 <_int_malloc+0x7b0>
   13c94:	0016f913          	andi	s2,a3,1
   13c98:	60091a63          	bnez	s2,142ac <_int_malloc+0x908>
   13c9c:	008f6463          	bltu	t5,s0,13ca4 <_int_malloc+0x300>
   13ca0:	58bb8663          	beq	s7,a1,1422c <_int_malloc+0x888>
   13ca4:	04b4a223          	sw	a1,68(s1)
   13ca8:	0175a423          	sw	s7,8(a1)
   13cac:	34f40663          	beq	s0,a5,13ff8 <_int_malloc+0x654>
   13cb0:	38ff6663          	bltu	t5,a5,1403c <_int_malloc+0x698>
   13cb4:	0047d693          	srli	a3,a5,0x4
   13cb8:	00369793          	slli	a5,a3,0x3
   13cbc:	04078793          	addi	a5,a5,64
   13cc0:	00f485b3          	add	a1,s1,a5
   13cc4:	00168793          	addi	a5,a3,1
   13cc8:	0005a603          	lw	a2,0(a1)
   13ccc:	00078913          	mv	s2,a5
   13cd0:	ff858593          	addi	a1,a1,-8
   13cd4:	40595693          	srai	a3,s2,0x5
   13cd8:	00269693          	slli	a3,a3,0x2
   13cdc:	00d486b3          	add	a3,s1,a3
   13ce0:	4386a903          	lw	s2,1080(a3)
   13ce4:	00128293          	addi	t0,t0,1
   13ce8:	05212423          	sw	s2,72(sp)
   13cec:	00100913          	li	s2,1
   13cf0:	00f917b3          	sll	a5,s2,a5
   13cf4:	04812903          	lw	s2,72(sp)
   13cf8:	00f967b3          	or	a5,s2,a5
   13cfc:	42f6ac23          	sw	a5,1080(a3)
   13d00:	00b72623          	sw	a1,12(a4)
   13d04:	00c72423          	sw	a2,8(a4)
   13d08:	00e62623          	sw	a4,12(a2)
   13d0c:	00e5a423          	sw	a4,8(a1)
   13d10:	3e0f9263          	bnez	t6,140f4 <_int_malloc+0x750>
   13d14:	01c12783          	lw	a5,28(sp)
   13d18:	00138393          	addi	t2,t2,1
   13d1c:	0077c663          	blt	a5,t2,13d28 <_int_malloc+0x384>
   13d20:	0444a703          	lw	a4,68(s1)
   13d24:	f2eb96e3          	bne	s7,a4,13c50 <_int_malloc+0x2ac>
   13d28:	3ef00793          	li	a5,1007
   13d2c:	0287f263          	bgeu	a5,s0,13d50 <_int_malloc+0x3ac>
   13d30:	003c9793          	slli	a5,s9,0x3
   13d34:	03878793          	addi	a5,a5,56
   13d38:	00f487b3          	add	a5,s1,a5
   13d3c:	0007a703          	lw	a4,0(a5)
   13d40:	ff878693          	addi	a3,a5,-8
   13d44:	00d70663          	beq	a4,a3,13d50 <_int_malloc+0x3ac>
   13d48:	00472683          	lw	a3,4(a4)
   13d4c:	4286f463          	bgeu	a3,s0,14174 <_int_malloc+0x7d0>
   13d50:	001c8713          	addi	a4,s9,1
   13d54:	00575913          	srli	s2,a4,0x5
   13d58:	10c90793          	addi	a5,s2,268
   13d5c:	00279793          	slli	a5,a5,0x2
   13d60:	00f487b3          	add	a5,s1,a5
   13d64:	003c9593          	slli	a1,s9,0x3
   13d68:	0087a783          	lw	a5,8(a5)
   13d6c:	00100693          	li	a3,1
   13d70:	03858593          	addi	a1,a1,56
   13d74:	00e69733          	sll	a4,a3,a4
   13d78:	00b485b3          	add	a1,s1,a1
   13d7c:	00400693          	li	a3,4
   13d80:	68e7e263          	bltu	a5,a4,14404 <_int_malloc+0xa60>
   13d84:	68070063          	beqz	a4,14404 <_int_malloc+0xa60>
   13d88:	00f77633          	and	a2,a4,a5
   13d8c:	74061863          	bnez	a2,144dc <_int_malloc+0xb38>
   13d90:	00171713          	slli	a4,a4,0x1
   13d94:	00858593          	addi	a1,a1,8
   13d98:	fe0718e3          	bnez	a4,13d88 <_int_malloc+0x3e4>
   13d9c:	b141a603          	lw	a2,-1260(gp) # 81e8c <__progname>
   13da0:	00064783          	lbu	a5,0(a2)
   13da4:	70079c63          	bnez	a5,144bc <_int_malloc+0xb18>
   13da8:	000676b7          	lui	a3,0x67
   13dac:	a9c68693          	addi	a3,a3,-1380 # 66a9c <expected2.3+0x8>
   13db0:	000638b7          	lui	a7,0x63
   13db4:	00064837          	lui	a6,0x64
   13db8:	000017b7          	lui	a5,0x1
   13dbc:	00064737          	lui	a4,0x64
   13dc0:	000635b7          	lui	a1,0x63
   13dc4:	00064537          	lui	a0,0x64
   13dc8:	59088893          	addi	a7,a7,1424 # 63590 <__PRETTY_FUNCTION__.1+0x14>
   13dcc:	66080813          	addi	a6,a6,1632 # 64660 <__PRETTY_FUNCTION__.2>
   13dd0:	fb978793          	addi	a5,a5,-71 # fb9 <catch_hook+0xf8d>
   13dd4:	9c070713          	addi	a4,a4,-1600 # 639c0 <__PRETTY_FUNCTION__.1+0x444>
   13dd8:	59458593          	addi	a1,a1,1428 # 63594 <__PRETTY_FUNCTION__.1+0x18>
   13ddc:	07850513          	addi	a0,a0,120 # 64078 <__PRETTY_FUNCTION__.1+0xafc>
   13de0:	00a12023          	sw	a0,0(sp)
   13de4:	00000513          	li	a0,0
   13de8:	76d110ef          	jal	ra,25d54 <__fxprintf>
   13dec:	b7c1a503          	lw	a0,-1156(gp) # 81ef4 <_IO_stderr>
   13df0:	344120ef          	jal	ra,26134 <_IO_fflush>
   13df4:	bc4fc0ef          	jal	ra,101b8 <abort>
   13df8:	0087a703          	lw	a4,8(a5)
   13dfc:	00078913          	mv	s2,a5
   13e00:	100627af          	lr.w	a5,(a2)
   13e04:	01279663          	bne	a5,s2,13e10 <_int_malloc+0x46c>
   13e08:	1ce6252f          	sc.w.aq	a0,a4,(a2)
   13e0c:	fe051ae3          	bnez	a0,13e00 <_int_malloc+0x45c>
   13e10:	c92782e3          	beq	a5,s2,13a94 <_int_malloc+0xf0>
   13e14:	fe0792e3          	bnez	a5,13df8 <_int_malloc+0x454>
   13e18:	00145793          	srli	a5,s0,0x1
   13e1c:	04078793          	addi	a5,a5,64
   13e20:	00f487b3          	add	a5,s1,a5
   13e24:	0047a903          	lw	s2,4(a5)
   13e28:	ff878693          	addi	a3,a5,-8
   13e2c:	00445c93          	srli	s9,s0,0x4
   13e30:	13268a63          	beq	a3,s2,13f64 <_int_malloc+0x5c0>
   13e34:	00c92703          	lw	a4,12(s2)
   13e38:	00872603          	lw	a2,8(a4)
   13e3c:	47261e63          	bne	a2,s2,142b8 <_int_malloc+0x914>
   13e40:	008905b3          	add	a1,s2,s0
   13e44:	0045a603          	lw	a2,4(a1)
   13e48:	00081337          	lui	t1,0x81
   13e4c:	00030313          	mv	t1,t1
   13e50:	00166613          	ori	a2,a2,1
   13e54:	00c5a223          	sw	a2,4(a1)
   13e58:	00e7a223          	sw	a4,4(a5)
   13e5c:	00d72423          	sw	a3,8(a4)
   13e60:	04030893          	addi	a7,t1,64 # 81040 <main_arena>
   13e64:	01148863          	beq	s1,a7,13e74 <_int_malloc+0x4d0>
   13e68:	00492703          	lw	a4,4(s2)
   13e6c:	00476713          	ori	a4,a4,4
   13e70:	00e92223          	sw	a4,4(s2)
   13e74:	01022803          	lw	a6,16(tp) # 10 <tcache>
   13e78:	0a080463          	beqz	a6,13f20 <_int_malloc+0x57c>
   13e7c:	03032603          	lw	a2,48(t1)
   13e80:	fff40713          	addi	a4,s0,-1
   13e84:	00475713          	srli	a4,a4,0x4
   13e88:	08c77c63          	bgeu	a4,a2,13f20 <_int_malloc+0x57c>
   13e8c:	00e80e33          	add	t3,a6,a4
   13e90:	03832583          	lw	a1,56(t1)
   13e94:	000e4603          	lbu	a2,0(t3)
   13e98:	00271713          	slli	a4,a4,0x2
   13e9c:	00e80533          	add	a0,a6,a4
   13ea0:	08b67063          	bgeu	a2,a1,13f20 <_int_malloc+0x57c>
   13ea4:	0047a703          	lw	a4,4(a5)
   13ea8:	06e68c63          	beq	a3,a4,13f20 <_int_malloc+0x57c>
   13eac:	fe070ae3          	beqz	a4,13ea0 <_int_malloc+0x4fc>
   13eb0:	00870f33          	add	t5,a4,s0
   13eb4:	004f2303          	lw	t1,4(t5)
   13eb8:	00c72e83          	lw	t4,12(a4)
   13ebc:	00136313          	ori	t1,t1,1
   13ec0:	006f2223          	sw	t1,4(t5)
   13ec4:	01148863          	beq	s1,a7,13ed4 <_int_malloc+0x530>
   13ec8:	00472303          	lw	t1,4(a4)
   13ecc:	00436313          	ori	t1,t1,4
   13ed0:	00672223          	sw	t1,4(a4)
   13ed4:	04052303          	lw	t1,64(a0)
   13ed8:	01d7a223          	sw	t4,4(a5)
   13edc:	00dea423          	sw	a3,8(t4)
   13ee0:	01072623          	sw	a6,12(a4)
   13ee4:	00672423          	sw	t1,8(a4)
   13ee8:	00160613          	addi	a2,a2,1
   13eec:	00870713          	addi	a4,a4,8
   13ef0:	04e52023          	sw	a4,64(a0)
   13ef4:	0ff67613          	andi	a2,a2,255
   13ef8:	00ce0023          	sb	a2,0(t3)
   13efc:	fa5ff06f          	j	13ea0 <_int_malloc+0x4fc>
   13f00:	00872583          	lw	a1,8(a4)
   13f04:	00070793          	mv	a5,a4
   13f08:	1006272f          	lr.w	a4,(a2)
   13f0c:	00f71663          	bne	a4,a5,13f18 <_int_malloc+0x574>
   13f10:	1cb6282f          	sc.w.aq	a6,a1,(a2)
   13f14:	fe081ae3          	bnez	a6,13f08 <_int_malloc+0x564>
   13f18:	bcf702e3          	beq	a4,a5,13adc <_int_malloc+0x138>
   13f1c:	fe0712e3          	bnez	a4,13f00 <_int_malloc+0x55c>
   13f20:	c281a583          	lw	a1,-984(gp) # 81fa0 <perturb_byte>
   13f24:	00890913          	addi	s2,s2,8
   13f28:	ac058ce3          	beqz	a1,13a00 <_int_malloc+0x5c>
   13f2c:	00098613          	mv	a2,s3
   13f30:	0ff5c593          	xori	a1,a1,255
   13f34:	00090513          	mv	a0,s2
   13f38:	1b8030ef          	jal	ra,170f0 <memset>
   13f3c:	ac5ff06f          	j	13a00 <_int_malloc+0x5c>
   13f40:	00200793          	li	a5,2
   13f44:	c15ff06f          	j	13b58 <_int_malloc+0x1b4>
   13f48:	00048513          	mv	a0,s1
   13f4c:	03112023          	sw	a7,32(sp)
   13f50:	01c12e23          	sw	t3,28(sp)
   13f54:	a81fd0ef          	jal	ra,119d4 <malloc_consolidate>
   13f58:	02012883          	lw	a7,32(sp)
   13f5c:	01c12e03          	lw	t3,28(sp)
   13f60:	c61ff06f          	j	13bc0 <_int_malloc+0x21c>
   13f64:	01245793          	srli	a5,s0,0x12
   13f68:	00200713          	li	a4,2
   13f6c:	001c8c93          	addi	s9,s9,1
   13f70:	00645d13          	srli	s10,s0,0x6
   13f74:	00945d93          	srli	s11,s0,0x9
   13f78:	00c45893          	srli	a7,s0,0xc
   13f7c:	00f45e13          	srli	t3,s0,0xf
   13f80:	18f76e63          	bltu	a4,a5,1411c <_int_malloc+0x778>
   13f84:	07c78793          	addi	a5,a5,124
   13f88:	04f12223          	sw	a5,68(sp)
   13f8c:	077e0793          	addi	a5,t3,119
   13f90:	02f12e23          	sw	a5,60(sp)
   13f94:	06e88793          	addi	a5,a7,110
   13f98:	04f12023          	sw	a5,64(sp)
   13f9c:	05bd8793          	addi	a5,s11,91
   13fa0:	02f12c23          	sw	a5,56(sp)
   13fa4:	031d0793          	addi	a5,s10,49
   13fa8:	00f12c23          	sw	a5,24(sp)
   13fac:	03912a23          	sw	s9,52(sp)
   13fb0:	c11ff06f          	j	13bc0 <_int_malloc+0x21c>
   13fb4:	00064537          	lui	a0,0x64
   13fb8:	f2450513          	addi	a0,a0,-220 # 63f24 <__PRETTY_FUNCTION__.1+0x9a8>
   13fbc:	900fd0ef          	jal	ra,110bc <malloc_printerr>
   13fc0:	00000593          	li	a1,0
   13fc4:	00040513          	mv	a0,s0
   13fc8:	908ff0ef          	jal	ra,130d0 <sysmalloc>
   13fcc:	00050913          	mv	s2,a0
   13fd0:	a20508e3          	beqz	a0,13a00 <_int_malloc+0x5c>
   13fd4:	c281a583          	lw	a1,-984(gp) # 81fa0 <perturb_byte>
   13fd8:	a20584e3          	beqz	a1,13a00 <_int_malloc+0x5c>
   13fdc:	00098613          	mv	a2,s3
   13fe0:	0ff5c593          	xori	a1,a1,255
   13fe4:	10c030ef          	jal	ra,170f0 <memset>
   13fe8:	a19ff06f          	j	13a00 <_int_malloc+0x5c>
   13fec:	00064537          	lui	a0,0x64
   13ff0:	f4850513          	addi	a0,a0,-184 # 63f48 <__PRETTY_FUNCTION__.1+0x9cc>
   13ff4:	8c8fd0ef          	jal	ra,110bc <malloc_printerr>
   13ff8:	0016e693          	ori	a3,a3,1
   13ffc:	000817b7          	lui	a5,0x81
   14000:	00d62223          	sw	a3,4(a2)
   14004:	04078793          	addi	a5,a5,64 # 81040 <main_arena>
   14008:	00f48863          	beq	s1,a5,14018 <_int_malloc+0x674>
   1400c:	00472783          	lw	a5,4(a4)
   14010:	0047e793          	ori	a5,a5,4
   14014:	00f72223          	sw	a5,4(a4)
   14018:	00870913          	addi	s2,a4,8
   1401c:	000b0a63          	beqz	s6,14030 <_int_malloc+0x68c>
   14020:	02012783          	lw	a5,32(sp)
   14024:	02412683          	lw	a3,36(sp)
   14028:	0007c783          	lbu	a5,0(a5)
   1402c:	0ed7ec63          	bltu	a5,a3,14124 <_int_malloc+0x780>
   14030:	c281a583          	lw	a1,-984(gp) # 81fa0 <perturb_byte>
   14034:	9c0586e3          	beqz	a1,13a00 <_int_malloc+0x5c>
   14038:	ef5ff06f          	j	13f2c <_int_malloc+0x588>
   1403c:	0067d693          	srli	a3,a5,0x6
   14040:	02d00613          	li	a2,45
   14044:	03168913          	addi	s2,a3,49
   14048:	04d67463          	bgeu	a2,a3,14090 <_int_malloc+0x6ec>
   1404c:	0097d693          	srli	a3,a5,0x9
   14050:	01400613          	li	a2,20
   14054:	05b68913          	addi	s2,a3,91
   14058:	02d67c63          	bgeu	a2,a3,14090 <_int_malloc+0x6ec>
   1405c:	00c7d693          	srli	a3,a5,0xc
   14060:	00a00613          	li	a2,10
   14064:	06e68913          	addi	s2,a3,110
   14068:	02d67463          	bgeu	a2,a3,14090 <_int_malloc+0x6ec>
   1406c:	00f7d693          	srli	a3,a5,0xf
   14070:	00400613          	li	a2,4
   14074:	07768913          	addi	s2,a3,119
   14078:	00d67c63          	bgeu	a2,a3,14090 <_int_malloc+0x6ec>
   1407c:	0127d693          	srli	a3,a5,0x12
   14080:	00200613          	li	a2,2
   14084:	00d67463          	bgeu	a2,a3,1408c <_int_malloc+0x6e8>
   14088:	00200693          	li	a3,2
   1408c:	07c68913          	addi	s2,a3,124
   14090:	00391693          	slli	a3,s2,0x3
   14094:	03868693          	addi	a3,a3,56
   14098:	00d486b3          	add	a3,s1,a3
   1409c:	0006a603          	lw	a2,0(a3)
   140a0:	00060593          	mv	a1,a2
   140a4:	04c12423          	sw	a2,72(sp)
   140a8:	ff868613          	addi	a2,a3,-8
   140ac:	0ab60a63          	beq	a2,a1,14160 <_int_malloc+0x7bc>
   140b0:	0046a583          	lw	a1,4(a3)
   140b4:	0045a683          	lw	a3,4(a1)
   140b8:	04d12623          	sw	a3,76(sp)
   140bc:	0046f693          	andi	a3,a3,4
   140c0:	20069263          	bnez	a3,142c4 <_int_malloc+0x920>
   140c4:	0017e693          	ori	a3,a5,1
   140c8:	04c12783          	lw	a5,76(sp)
   140cc:	28f6f463          	bgeu	a3,a5,14354 <_int_malloc+0x9b0>
   140d0:	04812783          	lw	a5,72(sp)
   140d4:	0147a683          	lw	a3,20(a5)
   140d8:	00f72823          	sw	a5,16(a4)
   140dc:	00090793          	mv	a5,s2
   140e0:	00d72a23          	sw	a3,20(a4)
   140e4:	00e6a823          	sw	a4,16(a3)
   140e8:	04812683          	lw	a3,72(sp)
   140ec:	00e6aa23          	sw	a4,20(a3)
   140f0:	be5ff06f          	j	13cd4 <_int_malloc+0x330>
   140f4:	02812783          	lw	a5,40(sp)
   140f8:	00078463          	beqz	a5,14100 <_int_malloc+0x75c>
   140fc:	4657e063          	bltu	a5,t0,1455c <_int_malloc+0xbb8>
   14100:	01c12783          	lw	a5,28(sp)
   14104:	00138393          	addi	t2,t2,1
   14108:	4877cc63          	blt	a5,t2,145a0 <_int_malloc+0xbfc>
   1410c:	0444a703          	lw	a4,68(s1)
   14110:	48eb8863          	beq	s7,a4,145a0 <_int_malloc+0xbfc>
   14114:	00100f93          	li	t6,1
   14118:	b39ff06f          	j	13c50 <_int_malloc+0x2ac>
   1411c:	00200793          	li	a5,2
   14120:	e65ff06f          	j	13f84 <_int_malloc+0x5e0>
   14124:	3ff00693          	li	a3,1023
   14128:	1e66e263          	bltu	a3,t1,1430c <_int_malloc+0x968>
   1412c:	02c12603          	lw	a2,44(sp)
   14130:	00178793          	addi	a5,a5,1
   14134:	04062683          	lw	a3,64(a2)
   14138:	00a72623          	sw	a0,12(a4)
   1413c:	00d72423          	sw	a3,8(a4)
   14140:	02012703          	lw	a4,32(sp)
   14144:	05262023          	sw	s2,64(a2)
   14148:	00f70023          	sb	a5,0(a4)
   1414c:	00058713          	mv	a4,a1
   14150:	fc1ff06f          	j	14110 <_int_malloc+0x76c>
   14154:	00064537          	lui	a0,0x64
   14158:	fa450513          	addi	a0,a0,-92 # 63fa4 <__PRETTY_FUNCTION__.1+0xa28>
   1415c:	f61fc0ef          	jal	ra,110bc <malloc_printerr>
   14160:	00e72a23          	sw	a4,20(a4)
   14164:	00e72823          	sw	a4,16(a4)
   14168:	00090793          	mv	a5,s2
   1416c:	00060593          	mv	a1,a2
   14170:	b65ff06f          	j	13cd4 <_int_malloc+0x330>
   14174:	01472703          	lw	a4,20(a4)
   14178:	00472683          	lw	a3,4(a4)
   1417c:	ff86fa13          	andi	s4,a3,-8
   14180:	fe8a6ae3          	bltu	s4,s0,14174 <_int_malloc+0x7d0>
   14184:	0047a903          	lw	s2,4(a5)
   14188:	01270a63          	beq	a4,s2,1419c <_int_malloc+0x7f8>
   1418c:	00872903          	lw	s2,8(a4)
   14190:	00492783          	lw	a5,4(s2)
   14194:	00f68463          	beq	a3,a5,1419c <_int_malloc+0x7f8>
   14198:	00070913          	mv	s2,a4
   1419c:	00090513          	mv	a0,s2
   141a0:	f64fd0ef          	jal	ra,11904 <unlink_chunk.constprop.0>
   141a4:	408a06b3          	sub	a3,s4,s0
   141a8:	00f00793          	li	a5,15
   141ac:	58d7fe63          	bgeu	a5,a3,14748 <_int_malloc+0xda4>
   141b0:	0404a703          	lw	a4,64(s1)
   141b4:	008907b3          	add	a5,s2,s0
   141b8:	00c72603          	lw	a2,12(a4)
   141bc:	5ecb9c63          	bne	s7,a2,147b4 <_int_malloc+0xe10>
   141c0:	00e7a423          	sw	a4,8(a5)
   141c4:	0177a623          	sw	s7,12(a5)
   141c8:	04f4a023          	sw	a5,64(s1)
   141cc:	00f72623          	sw	a5,12(a4)
   141d0:	3ef00713          	li	a4,1007
   141d4:	00d77663          	bgeu	a4,a3,141e0 <_int_malloc+0x83c>
   141d8:	0007a823          	sw	zero,16(a5)
   141dc:	0007aa23          	sw	zero,20(a5)
   141e0:	00081637          	lui	a2,0x81
   141e4:	04060613          	addi	a2,a2,64 # 81040 <main_arena>
   141e8:	00400713          	li	a4,4
   141ec:	5cc48a63          	beq	s1,a2,147c0 <_int_malloc+0xe1c>
   141f0:	00876733          	or	a4,a4,s0
   141f4:	00176713          	ori	a4,a4,1
   141f8:	00e92223          	sw	a4,4(s2)
   141fc:	0016e713          	ori	a4,a3,1
   14200:	00e7a223          	sw	a4,4(a5)
   14204:	01490a33          	add	s4,s2,s4
   14208:	00da2023          	sw	a3,0(s4)
   1420c:	00890913          	addi	s2,s2,8
   14210:	00098593          	mv	a1,s3
   14214:	00090513          	mv	a0,s2
   14218:	8c4fd0ef          	jal	ra,112dc <alloc_perturb>
   1421c:	fe4ff06f          	j	13a00 <_int_malloc+0x5c>
   14220:	00064537          	lui	a0,0x64
   14224:	f7050513          	addi	a0,a0,-144 # 63f70 <__PRETTY_FUNCTION__.1+0x9f4>
   14228:	e95fc0ef          	jal	ra,110bc <malloc_printerr>
   1422c:	03c4a903          	lw	s2,60(s1)
   14230:	a6e91ae3          	bne	s2,a4,13ca4 <_int_malloc+0x300>
   14234:	03012903          	lw	s2,48(sp)
   14238:	a6f976e3          	bgeu	s2,a5,13ca4 <_int_malloc+0x300>
   1423c:	008706b3          	add	a3,a4,s0
   14240:	04d4a023          	sw	a3,64(s1)
   14244:	04d4a223          	sw	a3,68(s1)
   14248:	02d4ae23          	sw	a3,60(s1)
   1424c:	00b6a423          	sw	a1,8(a3)
   14250:	00b6a623          	sw	a1,12(a3)
   14254:	408787b3          	sub	a5,a5,s0
   14258:	3ef00593          	li	a1,1007
   1425c:	00f5f663          	bgeu	a1,a5,14268 <_int_malloc+0x8c4>
   14260:	0006a823          	sw	zero,16(a3)
   14264:	0006aa23          	sw	zero,20(a3)
   14268:	040a8a93          	addi	s5,s5,64
   1426c:	00400593          	li	a1,4
   14270:	4b548863          	beq	s1,s5,14720 <_int_malloc+0xd7c>
   14274:	0085e5b3          	or	a1,a1,s0
   14278:	0015e593          	ori	a1,a1,1
   1427c:	00b72223          	sw	a1,4(a4)
   14280:	0017e593          	ori	a1,a5,1
   14284:	00b6a223          	sw	a1,4(a3)
   14288:	00870913          	addi	s2,a4,8
   1428c:	00f62023          	sw	a5,0(a2)
   14290:	00098593          	mv	a1,s3
   14294:	00090513          	mv	a0,s2
   14298:	844fd0ef          	jal	ra,112dc <alloc_perturb>
   1429c:	f64ff06f          	j	13a00 <_int_malloc+0x5c>
   142a0:	00064537          	lui	a0,0x64
   142a4:	ed050513          	addi	a0,a0,-304 # 63ed0 <__PRETTY_FUNCTION__.1+0x954>
   142a8:	e15fc0ef          	jal	ra,110bc <malloc_printerr>
   142ac:	00064537          	lui	a0,0x64
   142b0:	fd450513          	addi	a0,a0,-44 # 63fd4 <__PRETTY_FUNCTION__.1+0xa58>
   142b4:	e09fc0ef          	jal	ra,110bc <malloc_printerr>
   142b8:	00064537          	lui	a0,0x64
   142bc:	ef450513          	addi	a0,a0,-268 # 63ef4 <__PRETTY_FUNCTION__.1+0x978>
   142c0:	dfdfc0ef          	jal	ra,110bc <malloc_printerr>
   142c4:	b141a603          	lw	a2,-1260(gp) # 81e8c <__progname>
   142c8:	00064783          	lbu	a5,0(a2)
   142cc:	12079663          	bnez	a5,143f8 <_int_malloc+0xa54>
   142d0:	000676b7          	lui	a3,0x67
   142d4:	a9c68693          	addi	a3,a3,-1380 # 66a9c <expected2.3+0x8>
   142d8:	000638b7          	lui	a7,0x63
   142dc:	00064837          	lui	a6,0x64
   142e0:	000017b7          	lui	a5,0x1
   142e4:	00064737          	lui	a4,0x64
   142e8:	000635b7          	lui	a1,0x63
   142ec:	00064537          	lui	a0,0x64
   142f0:	59088893          	addi	a7,a7,1424 # 63590 <__PRETTY_FUNCTION__.1+0x14>
   142f4:	66080813          	addi	a6,a6,1632 # 64660 <__PRETTY_FUNCTION__.2>
   142f8:	f0b78793          	addi	a5,a5,-245 # f0b <catch_hook+0xedf>
   142fc:	9c070713          	addi	a4,a4,-1600 # 639c0 <__PRETTY_FUNCTION__.1+0x444>
   14300:	59458593          	addi	a1,a1,1428 # 63594 <__PRETTY_FUNCTION__.1+0x18>
   14304:	00450513          	addi	a0,a0,4 # 64004 <__PRETTY_FUNCTION__.1+0xa88>
   14308:	ad9ff06f          	j	13de0 <_int_malloc+0x43c>
   1430c:	b141a603          	lw	a2,-1260(gp) # 81e8c <__progname>
   14310:	00064783          	lbu	a5,0(a2)
   14314:	18079e63          	bnez	a5,144b0 <_int_malloc+0xb0c>
   14318:	000676b7          	lui	a3,0x67
   1431c:	a9c68693          	addi	a3,a3,-1380 # 66a9c <expected2.3+0x8>
   14320:	000638b7          	lui	a7,0x63
   14324:	00064837          	lui	a6,0x64
   14328:	000017b7          	lui	a5,0x1
   1432c:	00064737          	lui	a4,0x64
   14330:	000635b7          	lui	a1,0x63
   14334:	00064537          	lui	a0,0x64
   14338:	59088893          	addi	a7,a7,1424 # 63590 <__PRETTY_FUNCTION__.1+0x14>
   1433c:	65480813          	addi	a6,a6,1620 # 64654 <__PRETTY_FUNCTION__.3>
   14340:	b7378793          	addi	a5,a5,-1165 # b73 <catch_hook+0xb47>
   14344:	9c070713          	addi	a4,a4,-1600 # 639c0 <__PRETTY_FUNCTION__.1+0x444>
   14348:	59458593          	addi	a1,a1,1428 # 63594 <__PRETTY_FUNCTION__.1+0x18>
   1434c:	b2050513          	addi	a0,a0,-1248 # 63b20 <__PRETTY_FUNCTION__.1+0x5a4>
   14350:	a91ff06f          	j	13de0 <_int_malloc+0x43c>
   14354:	04812783          	lw	a5,72(sp)
   14358:	0047a603          	lw	a2,4(a5)
   1435c:	00467793          	andi	a5,a2,4
   14360:	06079463          	bnez	a5,143c8 <_int_malloc+0xa24>
   14364:	1ac6f863          	bgeu	a3,a2,14514 <_int_malloc+0xb70>
   14368:	04812783          	lw	a5,72(sp)
   1436c:	0107a783          	lw	a5,16(a5)
   14370:	0047a603          	lw	a2,4(a5)
   14374:	04f12423          	sw	a5,72(sp)
   14378:	00467793          	andi	a5,a2,4
   1437c:	fe0784e3          	beqz	a5,14364 <_int_malloc+0x9c0>
   14380:	b141a603          	lw	a2,-1260(gp) # 81e8c <__progname>
   14384:	00064783          	lbu	a5,0(a2)
   14388:	18079063          	bnez	a5,14508 <_int_malloc+0xb64>
   1438c:	000676b7          	lui	a3,0x67
   14390:	a9c68693          	addi	a3,a3,-1380 # 66a9c <expected2.3+0x8>
   14394:	000638b7          	lui	a7,0x63
   14398:	00064837          	lui	a6,0x64
   1439c:	000017b7          	lui	a5,0x1
   143a0:	59088893          	addi	a7,a7,1424 # 63590 <__PRETTY_FUNCTION__.1+0x14>
   143a4:	66080813          	addi	a6,a6,1632 # 64660 <__PRETTY_FUNCTION__.2>
   143a8:	f1c78793          	addi	a5,a5,-228 # f1c <catch_hook+0xef0>
   143ac:	00064737          	lui	a4,0x64
   143b0:	000635b7          	lui	a1,0x63
   143b4:	00064537          	lui	a0,0x64
   143b8:	9c070713          	addi	a4,a4,-1600 # 639c0 <__PRETTY_FUNCTION__.1+0x444>
   143bc:	59458593          	addi	a1,a1,1428 # 63594 <__PRETTY_FUNCTION__.1+0x18>
   143c0:	02050513          	addi	a0,a0,32 # 64020 <__PRETTY_FUNCTION__.1+0xaa4>
   143c4:	a1dff06f          	j	13de0 <_int_malloc+0x43c>
   143c8:	b141a603          	lw	a2,-1260(gp) # 81e8c <__progname>
   143cc:	00064783          	lbu	a5,0(a2)
   143d0:	16079a63          	bnez	a5,14544 <_int_malloc+0xba0>
   143d4:	000676b7          	lui	a3,0x67
   143d8:	a9c68693          	addi	a3,a3,-1380 # 66a9c <expected2.3+0x8>
   143dc:	000638b7          	lui	a7,0x63
   143e0:	00064837          	lui	a6,0x64
   143e4:	000017b7          	lui	a5,0x1
   143e8:	59088893          	addi	a7,a7,1424 # 63590 <__PRETTY_FUNCTION__.1+0x14>
   143ec:	66080813          	addi	a6,a6,1632 # 64660 <__PRETTY_FUNCTION__.2>
   143f0:	f1878793          	addi	a5,a5,-232 # f18 <catch_hook+0xeec>
   143f4:	fb9ff06f          	j	143ac <_int_malloc+0xa08>
   143f8:	000638b7          	lui	a7,0x63
   143fc:	59088693          	addi	a3,a7,1424 # 63590 <__PRETTY_FUNCTION__.1+0x14>
   14400:	eddff06f          	j	142dc <_int_malloc+0x938>
   14404:	00291713          	slli	a4,s2,0x2
   14408:	00e48733          	add	a4,s1,a4
   1440c:	0100006f          	j	1441c <_int_malloc+0xa78>
   14410:	43c72783          	lw	a5,1084(a4)
   14414:	00470713          	addi	a4,a4,4
   14418:	0a079863          	bnez	a5,144c8 <_int_malloc+0xb24>
   1441c:	00190913          	addi	s2,s2,1
   14420:	fed918e3          	bne	s2,a3,14410 <_int_malloc+0xa6c>
   14424:	0384a703          	lw	a4,56(s1)
   14428:	4544a683          	lw	a3,1108(s1)
   1442c:	00472783          	lw	a5,4(a4)
   14430:	ff87f793          	andi	a5,a5,-8
   14434:	16f6e063          	bltu	a3,a5,14594 <_int_malloc+0xbf0>
   14438:	03012683          	lw	a3,48(sp)
   1443c:	32d7fc63          	bgeu	a5,a3,14774 <_int_malloc+0xdd0>
   14440:	03112623          	sw	a7,44(sp)
   14444:	03c12423          	sw	t3,40(sp)
   14448:	02612223          	sw	t1,36(sp)
   1444c:	02512023          	sw	t0,32(sp)
   14450:	0084a783          	lw	a5,8(s1)
   14454:	2c078a63          	beqz	a5,14728 <_int_malloc+0xd84>
   14458:	00048513          	mv	a0,s1
   1445c:	d78fd0ef          	jal	ra,119d4 <malloc_consolidate>
   14460:	3ef00793          	li	a5,1007
   14464:	03412c83          	lw	s9,52(sp)
   14468:	02012283          	lw	t0,32(sp)
   1446c:	02412303          	lw	t1,36(sp)
   14470:	02812e03          	lw	t3,40(sp)
   14474:	02c12883          	lw	a7,44(sp)
   14478:	f887fa63          	bgeu	a5,s0,13c0c <_int_malloc+0x268>
   1447c:	02d00793          	li	a5,45
   14480:	01812c83          	lw	s9,24(sp)
   14484:	f9a7f463          	bgeu	a5,s10,13c0c <_int_malloc+0x268>
   14488:	01400793          	li	a5,20
   1448c:	03812c83          	lw	s9,56(sp)
   14490:	f7b7fe63          	bgeu	a5,s11,13c0c <_int_malloc+0x268>
   14494:	00a00793          	li	a5,10
   14498:	04012c83          	lw	s9,64(sp)
   1449c:	f717f863          	bgeu	a5,a7,13c0c <_int_malloc+0x268>
   144a0:	04412c83          	lw	s9,68(sp)
   144a4:	f7c96463          	bltu	s2,t3,13c0c <_int_malloc+0x268>
   144a8:	03c12c83          	lw	s9,60(sp)
   144ac:	f60ff06f          	j	13c0c <_int_malloc+0x268>
   144b0:	000638b7          	lui	a7,0x63
   144b4:	59088693          	addi	a3,a7,1424 # 63590 <__PRETTY_FUNCTION__.1+0x14>
   144b8:	e6dff06f          	j	14324 <_int_malloc+0x980>
   144bc:	000638b7          	lui	a7,0x63
   144c0:	59088693          	addi	a3,a7,1424 # 63590 <__PRETTY_FUNCTION__.1+0x14>
   144c4:	8f1ff06f          	j	13db4 <_int_malloc+0x410>
   144c8:	00891593          	slli	a1,s2,0x8
   144cc:	03058593          	addi	a1,a1,48
   144d0:	00b485b3          	add	a1,s1,a1
   144d4:	00100713          	li	a4,1
   144d8:	8b1ff06f          	j	13d88 <_int_malloc+0x3e4>
   144dc:	00c5ac83          	lw	s9,12(a1)
   144e0:	15959263          	bne	a1,s9,14624 <_int_malloc+0xc80>
   144e4:	10c90613          	addi	a2,s2,268
   144e8:	fff74513          	not	a0,a4
   144ec:	00261613          	slli	a2,a2,0x2
   144f0:	00a7f7b3          	and	a5,a5,a0
   144f4:	00c48633          	add	a2,s1,a2
   144f8:	00f62423          	sw	a5,8(a2)
   144fc:	00858593          	addi	a1,a1,8
   14500:	00171713          	slli	a4,a4,0x1
   14504:	87dff06f          	j	13d80 <_int_malloc+0x3dc>
   14508:	000638b7          	lui	a7,0x63
   1450c:	59088693          	addi	a3,a7,1424 # 63590 <__PRETTY_FUNCTION__.1+0x14>
   14510:	e89ff06f          	j	14398 <_int_malloc+0x9f4>
   14514:	02d60e63          	beq	a2,a3,14550 <_int_malloc+0xbac>
   14518:	04812683          	lw	a3,72(sp)
   1451c:	0146a783          	lw	a5,20(a3)
   14520:	00d72823          	sw	a3,16(a4)
   14524:	00068613          	mv	a2,a3
   14528:	00f72a23          	sw	a5,20(a4)
   1452c:	00e6aa23          	sw	a4,20(a3)
   14530:	01472783          	lw	a5,20(a4)
   14534:	00e7a823          	sw	a4,16(a5)
   14538:	00c62583          	lw	a1,12(a2)
   1453c:	00090793          	mv	a5,s2
   14540:	f94ff06f          	j	13cd4 <_int_malloc+0x330>
   14544:	000638b7          	lui	a7,0x63
   14548:	59088693          	addi	a3,a7,1424 # 63590 <__PRETTY_FUNCTION__.1+0x14>
   1454c:	e95ff06f          	j	143e0 <_int_malloc+0xa3c>
   14550:	04812783          	lw	a5,72(sp)
   14554:	0087a603          	lw	a2,8(a5)
   14558:	fe1ff06f          	j	14538 <_int_malloc+0xb94>
   1455c:	3ff00793          	li	a5,1023
   14560:	0667ee63          	bltu	a5,t1,145dc <_int_malloc+0xc38>
   14564:	002c1793          	slli	a5,s8,0x2
   14568:	00f507b3          	add	a5,a0,a5
   1456c:	0407a903          	lw	s2,64(a5)
   14570:	08090863          	beqz	s2,14600 <_int_malloc+0xc5c>
   14574:	00092703          	lw	a4,0(s2)
   14578:	01850533          	add	a0,a0,s8
   1457c:	04e7a023          	sw	a4,64(a5)
   14580:	00054783          	lbu	a5,0(a0)
   14584:	fff78793          	addi	a5,a5,-1
   14588:	00f50023          	sb	a5,0(a0)
   1458c:	00092223          	sw	zero,4(s2)
   14590:	c70ff06f          	j	13a00 <_int_malloc+0x5c>
   14594:	00064537          	lui	a0,0x64
   14598:	0dc50513          	addi	a0,a0,220 # 640dc <__PRETTY_FUNCTION__.1+0xb60>
   1459c:	b21fc0ef          	jal	ra,110bc <malloc_printerr>
   145a0:	3ff00793          	li	a5,1023
   145a4:	0267ec63          	bltu	a5,t1,145dc <_int_malloc+0xc38>
   145a8:	01022783          	lw	a5,16(tp) # 10 <tcache>
   145ac:	002c1713          	slli	a4,s8,0x2
   145b0:	00e78733          	add	a4,a5,a4
   145b4:	04072903          	lw	s2,64(a4)
   145b8:	04090463          	beqz	s2,14600 <_int_malloc+0xc5c>
   145bc:	00092683          	lw	a3,0(s2)
   145c0:	01878c33          	add	s8,a5,s8
   145c4:	04d72023          	sw	a3,64(a4)
   145c8:	000c4783          	lbu	a5,0(s8)
   145cc:	fff78793          	addi	a5,a5,-1
   145d0:	00fc0023          	sb	a5,0(s8)
   145d4:	00092223          	sw	zero,4(s2)
   145d8:	c28ff06f          	j	13a00 <_int_malloc+0x5c>
   145dc:	000646b7          	lui	a3,0x64
   145e0:	00001637          	lui	a2,0x1
   145e4:	000645b7          	lui	a1,0x64
   145e8:	00064537          	lui	a0,0x64
   145ec:	64868693          	addi	a3,a3,1608 # 64648 <__PRETTY_FUNCTION__.4>
   145f0:	b8460613          	addi	a2,a2,-1148 # b84 <catch_hook+0xb58>
   145f4:	9c058593          	addi	a1,a1,-1600 # 639c0 <__PRETTY_FUNCTION__.1+0x444>
   145f8:	b2050513          	addi	a0,a0,-1248 # 63b20 <__PRETTY_FUNCTION__.1+0x5a4>
   145fc:	a61fc0ef          	jal	ra,1105c <__malloc_assert>
   14600:	000646b7          	lui	a3,0x64
   14604:	00001637          	lui	a2,0x1
   14608:	000645b7          	lui	a1,0x64
   1460c:	00064537          	lui	a0,0x64
   14610:	64868693          	addi	a3,a3,1608 # 64648 <__PRETTY_FUNCTION__.4>
   14614:	b8560613          	addi	a2,a2,-1147 # b85 <catch_hook+0xb59>
   14618:	9c058593          	addi	a1,a1,-1600 # 639c0 <__PRETTY_FUNCTION__.1+0x444>
   1461c:	03850513          	addi	a0,a0,56 # 64038 <__PRETTY_FUNCTION__.1+0xabc>
   14620:	a3dfc0ef          	jal	ra,1105c <__malloc_assert>
   14624:	004ca903          	lw	s2,4(s9)
   14628:	ff897913          	andi	s2,s2,-8
   1462c:	0c896863          	bltu	s2,s0,146fc <_int_malloc+0xd58>
   14630:	000c8513          	mv	a0,s9
   14634:	ad0fd0ef          	jal	ra,11904 <unlink_chunk.constprop.0>
   14638:	408906b3          	sub	a3,s2,s0
   1463c:	00f00793          	li	a5,15
   14640:	08d7f863          	bgeu	a5,a3,146d0 <_int_malloc+0xd2c>
   14644:	0404a703          	lw	a4,64(s1)
   14648:	008c87b3          	add	a5,s9,s0
   1464c:	00c72603          	lw	a2,12(a4)
   14650:	06cb9663          	bne	s7,a2,146bc <_int_malloc+0xd18>
   14654:	00e7a423          	sw	a4,8(a5)
   14658:	0177a623          	sw	s7,12(a5)
   1465c:	04f4a023          	sw	a5,64(s1)
   14660:	00f72623          	sw	a5,12(a4)
   14664:	3ef00713          	li	a4,1007
   14668:	00876463          	bltu	a4,s0,14670 <_int_malloc+0xccc>
   1466c:	02f4ae23          	sw	a5,60(s1)
   14670:	3ef00713          	li	a4,1007
   14674:	00d77663          	bgeu	a4,a3,14680 <_int_malloc+0xcdc>
   14678:	0007a823          	sw	zero,16(a5)
   1467c:	0007aa23          	sw	zero,20(a5)
   14680:	00081637          	lui	a2,0x81
   14684:	04060613          	addi	a2,a2,64 # 81040 <main_arena>
   14688:	00400713          	li	a4,4
   1468c:	02c48e63          	beq	s1,a2,146c8 <_int_malloc+0xd24>
   14690:	00876733          	or	a4,a4,s0
   14694:	00176713          	ori	a4,a4,1
   14698:	00eca223          	sw	a4,4(s9)
   1469c:	0016e713          	ori	a4,a3,1
   146a0:	00e7a223          	sw	a4,4(a5)
   146a4:	012c8933          	add	s2,s9,s2
   146a8:	00d92023          	sw	a3,0(s2)
   146ac:	c281a583          	lw	a1,-984(gp) # 81fa0 <perturb_byte>
   146b0:	008c8913          	addi	s2,s9,8
   146b4:	b4058663          	beqz	a1,13a00 <_int_malloc+0x5c>
   146b8:	875ff06f          	j	13f2c <_int_malloc+0x588>
   146bc:	00064537          	lui	a0,0x64
   146c0:	0b450513          	addi	a0,a0,180 # 640b4 <__PRETTY_FUNCTION__.1+0xb38>
   146c4:	9f9fc0ef          	jal	ra,110bc <malloc_printerr>
   146c8:	00000713          	li	a4,0
   146cc:	fc5ff06f          	j	14690 <_int_malloc+0xcec>
   146d0:	012c8933          	add	s2,s9,s2
   146d4:	00492703          	lw	a4,4(s2)
   146d8:	000817b7          	lui	a5,0x81
   146dc:	04078793          	addi	a5,a5,64 # 81040 <main_arena>
   146e0:	00176713          	ori	a4,a4,1
   146e4:	00e92223          	sw	a4,4(s2)
   146e8:	fcf482e3          	beq	s1,a5,146ac <_int_malloc+0xd08>
   146ec:	004ca783          	lw	a5,4(s9)
   146f0:	0047e793          	ori	a5,a5,4
   146f4:	00fca223          	sw	a5,4(s9)
   146f8:	fb5ff06f          	j	146ac <_int_malloc+0xd08>
   146fc:	000646b7          	lui	a3,0x64
   14700:	00001637          	lui	a2,0x1
   14704:	000645b7          	lui	a1,0x64
   14708:	00064537          	lui	a0,0x64
   1470c:	66068693          	addi	a3,a3,1632 # 64660 <__PRETTY_FUNCTION__.2>
   14710:	fcc60613          	addi	a2,a2,-52 # fcc <catch_hook+0xfa0>
   14714:	9c058593          	addi	a1,a1,-1600 # 639c0 <__PRETTY_FUNCTION__.1+0x444>
   14718:	08450513          	addi	a0,a0,132 # 64084 <__PRETTY_FUNCTION__.1+0xb08>
   1471c:	941fc0ef          	jal	ra,1105c <__malloc_assert>
   14720:	00000593          	li	a1,0
   14724:	b51ff06f          	j	14274 <_int_malloc+0x8d0>
   14728:	00048593          	mv	a1,s1
   1472c:	00040513          	mv	a0,s0
   14730:	9a1fe0ef          	jal	ra,130d0 <sysmalloc>
   14734:	00050913          	mv	s2,a0
   14738:	ac050463          	beqz	a0,13a00 <_int_malloc+0x5c>
   1473c:	00098593          	mv	a1,s3
   14740:	b9dfc0ef          	jal	ra,112dc <alloc_perturb>
   14744:	abcff06f          	j	13a00 <_int_malloc+0x5c>
   14748:	01490a33          	add	s4,s2,s4
   1474c:	004a2703          	lw	a4,4(s4)
   14750:	000817b7          	lui	a5,0x81
   14754:	04078793          	addi	a5,a5,64 # 81040 <main_arena>
   14758:	00176713          	ori	a4,a4,1
   1475c:	00ea2223          	sw	a4,4(s4)
   14760:	aaf486e3          	beq	s1,a5,1420c <_int_malloc+0x868>
   14764:	00492783          	lw	a5,4(s2)
   14768:	0047e793          	ori	a5,a5,4
   1476c:	00f92223          	sw	a5,4(s2)
   14770:	a9dff06f          	j	1420c <_int_malloc+0x868>
   14774:	008705b3          	add	a1,a4,s0
   14778:	00081637          	lui	a2,0x81
   1477c:	02b4ac23          	sw	a1,56(s1)
   14780:	04060613          	addi	a2,a2,64 # 81040 <main_arena>
   14784:	408786b3          	sub	a3,a5,s0
   14788:	04c48063          	beq	s1,a2,147c8 <_int_malloc+0xe24>
   1478c:	008967b3          	or	a5,s2,s0
   14790:	0017e793          	ori	a5,a5,1
   14794:	00f72223          	sw	a5,4(a4)
   14798:	00870913          	addi	s2,a4,8
   1479c:	0016e793          	ori	a5,a3,1
   147a0:	00f5a223          	sw	a5,4(a1)
   147a4:	00090513          	mv	a0,s2
   147a8:	00098593          	mv	a1,s3
   147ac:	b31fc0ef          	jal	ra,112dc <alloc_perturb>
   147b0:	a50ff06f          	j	13a00 <_int_malloc+0x5c>
   147b4:	00064537          	lui	a0,0x64
   147b8:	05450513          	addi	a0,a0,84 # 64054 <__PRETTY_FUNCTION__.1+0xad8>
   147bc:	901fc0ef          	jal	ra,110bc <malloc_printerr>
   147c0:	00000713          	li	a4,0
   147c4:	a2dff06f          	j	141f0 <_int_malloc+0x84c>
   147c8:	00000913          	li	s2,0
   147cc:	fc1ff06f          	j	1478c <_int_malloc+0xde8>

000147d0 <malloc_check>:
   147d0:	fff00793          	li	a5,-1
   147d4:	08f50a63          	beq	a0,a5,14868 <malloc_check+0x98>
   147d8:	ff010113          	addi	sp,sp,-16
   147dc:	00812423          	sw	s0,8(sp)
   147e0:	00081437          	lui	s0,0x81
   147e4:	00040413          	mv	s0,s0
   147e8:	00912223          	sw	s1,4(sp)
   147ec:	00112623          	sw	ra,12(sp)
   147f0:	01212023          	sw	s2,0(sp)
   147f4:	00050493          	mv	s1,a0
   147f8:	00100713          	li	a4,1
   147fc:	04040693          	addi	a3,s0,64 # 81040 <main_arena>
   14800:	1006a7af          	lr.w	a5,(a3)
   14804:	00079663          	bnez	a5,14810 <malloc_check+0x40>
   14808:	1ce6a62f          	sc.w.aq	a2,a4,(a3)
   1480c:	fe061ae3          	bnez	a2,14800 <malloc_check+0x30>
   14810:	00081537          	lui	a0,0x81
   14814:	04050913          	addi	s2,a0,64 # 81040 <main_arena>
   14818:	06079663          	bnez	a5,14884 <malloc_check+0xb4>
   1481c:	8bdfc0ef          	jal	ra,110d8 <top_check>
   14820:	00148593          	addi	a1,s1,1
   14824:	00090513          	mv	a0,s2
   14828:	97cff0ef          	jal	ra,139a4 <_int_malloc>
   1482c:	00050793          	mv	a5,a0
   14830:	00000713          	li	a4,0
   14834:	04040693          	addi	a3,s0,64
   14838:	0f50000f          	fence	iorw,ow
   1483c:	08e6a72f          	amoswap.w	a4,a4,(a3)
   14840:	00100693          	li	a3,1
   14844:	04e6c663          	blt	a3,a4,14890 <malloc_check+0xc0>
   14848:	00812403          	lw	s0,8(sp)
   1484c:	00c12083          	lw	ra,12(sp)
   14850:	00012903          	lw	s2,0(sp)
   14854:	00048593          	mv	a1,s1
   14858:	00412483          	lw	s1,4(sp)
   1485c:	00078513          	mv	a0,a5
   14860:	01010113          	addi	sp,sp,16
   14864:	cb0fc06f          	j	10d14 <mem2mem_check>
   14868:	0006d797          	auipc	a5,0x6d
   1486c:	5b87a783          	lw	a5,1464(a5) # 81e20 <_GLOBAL_OFFSET_TABLE_+0x30>
   14870:	00c00713          	li	a4,12
   14874:	00000513          	li	a0,0
   14878:	004787b3          	add	a5,a5,tp
   1487c:	00e7a023          	sw	a4,0(a5)
   14880:	00008067          	ret
   14884:	04050513          	addi	a0,a0,64
   14888:	099030ef          	jal	ra,18120 <__lll_lock_wait_private>
   1488c:	f91ff06f          	j	1481c <malloc_check+0x4c>
   14890:	06200893          	li	a7,98
   14894:	00090513          	mv	a0,s2
   14898:	08100593          	li	a1,129
   1489c:	00100613          	li	a2,1
   148a0:	00000693          	li	a3,0
   148a4:	00000073          	ecall
   148a8:	fa1ff06f          	j	14848 <malloc_check+0x78>

000148ac <_int_memalign>:
   148ac:	fd010113          	addi	sp,sp,-48
   148b0:	02812423          	sw	s0,40(sp)
   148b4:	01312e23          	sw	s3,28(sp)
   148b8:	02112623          	sw	ra,44(sp)
   148bc:	02912223          	sw	s1,36(sp)
   148c0:	03212023          	sw	s2,32(sp)
   148c4:	01412c23          	sw	s4,24(sp)
   148c8:	01512a23          	sw	s5,20(sp)
   148cc:	01360413          	addi	s0,a2,19
   148d0:	00f00993          	li	s3,15
   148d4:	1489f063          	bgeu	s3,s0,14a14 <_int_memalign+0x168>
   148d8:	ff047413          	andi	s0,s0,-16
   148dc:	12c46c63          	bltu	s0,a2,14a14 <_int_memalign+0x168>
   148e0:	fdf00793          	li	a5,-33
   148e4:	1287e863          	bltu	a5,s0,14a14 <_int_memalign+0x168>
   148e8:	fef00793          	li	a5,-17
   148ec:	40b787b3          	sub	a5,a5,a1
   148f0:	00058493          	mv	s1,a1
   148f4:	1287e063          	bltu	a5,s0,14a14 <_int_memalign+0x168>
   148f8:	01058593          	addi	a1,a1,16
   148fc:	008585b3          	add	a1,a1,s0
   14900:	00050a93          	mv	s5,a0
   14904:	8a0ff0ef          	jal	ra,139a4 <_int_malloc>
   14908:	00050a13          	mv	s4,a0
   1490c:	12050063          	beqz	a0,14a2c <_int_memalign+0x180>
   14910:	029577b3          	remu	a5,a0,s1
   14914:	ff850713          	addi	a4,a0,-8
   14918:	0a078263          	beqz	a5,149bc <_int_memalign+0x110>
   1491c:	fff48913          	addi	s2,s1,-1
   14920:	01250933          	add	s2,a0,s2
   14924:	409007b3          	neg	a5,s1
   14928:	00f97933          	and	s2,s2,a5
   1492c:	ff890913          	addi	s2,s2,-8
   14930:	40e906b3          	sub	a3,s2,a4
   14934:	00d9e663          	bltu	s3,a3,14940 <_int_memalign+0x94>
   14938:	00990933          	add	s2,s2,s1
   1493c:	40e906b3          	sub	a3,s2,a4
   14940:	ffca2783          	lw	a5,-4(s4)
   14944:	ff87f993          	andi	s3,a5,-8
   14948:	0027f793          	andi	a5,a5,2
   1494c:	40d989b3          	sub	s3,s3,a3
   14950:	10079263          	bnez	a5,14a54 <_int_memalign+0x1a8>
   14954:	000815b7          	lui	a1,0x81
   14958:	04058593          	addi	a1,a1,64 # 81040 <main_arena>
   1495c:	00098613          	mv	a2,s3
   14960:	00ba8663          	beq	s5,a1,1496c <_int_memalign+0xc0>
   14964:	0049e613          	ori	a2,s3,4
   14968:	00400793          	li	a5,4
   1496c:	00166613          	ori	a2,a2,1
   14970:	00c92223          	sw	a2,4(s2)
   14974:	01390833          	add	a6,s2,s3
   14978:	00482503          	lw	a0,4(a6)
   1497c:	00070593          	mv	a1,a4
   14980:	00100613          	li	a2,1
   14984:	00156713          	ori	a4,a0,1
   14988:	00e82223          	sw	a4,4(a6)
   1498c:	ffca2703          	lw	a4,-4(s4)
   14990:	000a8513          	mv	a0,s5
   14994:	00777713          	andi	a4,a4,7
   14998:	00d76733          	or	a4,a4,a3
   1499c:	00f767b3          	or	a5,a4,a5
   149a0:	fefa2e23          	sw	a5,-4(s4)
   149a4:	d69fd0ef          	jal	ra,1270c <_int_free>
   149a8:	0c89e463          	bltu	s3,s0,14a70 <_int_memalign+0x1c4>
   149ac:	00890a13          	addi	s4,s2,8
   149b0:	029a74b3          	remu	s1,s4,s1
   149b4:	0a049e63          	bnez	s1,14a70 <_int_memalign+0x1c4>
   149b8:	00090713          	mv	a4,s2
   149bc:	00472783          	lw	a5,4(a4)
   149c0:	0027f693          	andi	a3,a5,2
   149c4:	06069463          	bnez	a3,14a2c <_int_memalign+0x180>
   149c8:	ff87f793          	andi	a5,a5,-8
   149cc:	01040693          	addi	a3,s0,16
   149d0:	04f6fe63          	bgeu	a3,a5,14a2c <_int_memalign+0x180>
   149d4:	000816b7          	lui	a3,0x81
   149d8:	04068693          	addi	a3,a3,64 # 81040 <main_arena>
   149dc:	408787b3          	sub	a5,a5,s0
   149e0:	008705b3          	add	a1,a4,s0
   149e4:	00da8463          	beq	s5,a3,149ec <_int_memalign+0x140>
   149e8:	0047e793          	ori	a5,a5,4
   149ec:	0017e793          	ori	a5,a5,1
   149f0:	00f5a223          	sw	a5,4(a1)
   149f4:	00472783          	lw	a5,4(a4)
   149f8:	00100613          	li	a2,1
   149fc:	000a8513          	mv	a0,s5
   14a00:	0077f793          	andi	a5,a5,7
   14a04:	0087e433          	or	s0,a5,s0
   14a08:	00872223          	sw	s0,4(a4)
   14a0c:	d01fd0ef          	jal	ra,1270c <_int_free>
   14a10:	01c0006f          	j	14a2c <_int_memalign+0x180>
   14a14:	0006d797          	auipc	a5,0x6d
   14a18:	40c7a783          	lw	a5,1036(a5) # 81e20 <_GLOBAL_OFFSET_TABLE_+0x30>
   14a1c:	00c00713          	li	a4,12
   14a20:	00000a13          	li	s4,0
   14a24:	004787b3          	add	a5,a5,tp
   14a28:	00e7a023          	sw	a4,0(a5)
   14a2c:	02c12083          	lw	ra,44(sp)
   14a30:	02812403          	lw	s0,40(sp)
   14a34:	02412483          	lw	s1,36(sp)
   14a38:	02012903          	lw	s2,32(sp)
   14a3c:	01c12983          	lw	s3,28(sp)
   14a40:	01412a83          	lw	s5,20(sp)
   14a44:	000a0513          	mv	a0,s4
   14a48:	01812a03          	lw	s4,24(sp)
   14a4c:	03010113          	addi	sp,sp,48
   14a50:	00008067          	ret
   14a54:	ff8a2703          	lw	a4,-8(s4)
   14a58:	0029e993          	ori	s3,s3,2
   14a5c:	01392223          	sw	s3,4(s2)
   14a60:	00d70733          	add	a4,a4,a3
   14a64:	00e92023          	sw	a4,0(s2)
   14a68:	00890a13          	addi	s4,s2,8
   14a6c:	fc1ff06f          	j	14a2c <_int_memalign+0x180>
   14a70:	b141a603          	lw	a2,-1260(gp) # 81e8c <__progname>
   14a74:	00064783          	lbu	a5,0(a2)
   14a78:	04079a63          	bnez	a5,14acc <_int_memalign+0x220>
   14a7c:	000676b7          	lui	a3,0x67
   14a80:	a9c68693          	addi	a3,a3,-1380 # 66a9c <expected2.3+0x8>
   14a84:	000638b7          	lui	a7,0x63
   14a88:	00064537          	lui	a0,0x64
   14a8c:	0fc50513          	addi	a0,a0,252 # 640fc <__PRETTY_FUNCTION__.1+0xb80>
   14a90:	00064837          	lui	a6,0x64
   14a94:	000017b7          	lui	a5,0x1
   14a98:	00064737          	lui	a4,0x64
   14a9c:	000635b7          	lui	a1,0x63
   14aa0:	59088893          	addi	a7,a7,1424 # 63590 <__PRETTY_FUNCTION__.1+0x14>
   14aa4:	66c80813          	addi	a6,a6,1644 # 6466c <__PRETTY_FUNCTION__.1>
   14aa8:	28178793          	addi	a5,a5,641 # 1281 <catch_hook+0x1255>
   14aac:	9c070713          	addi	a4,a4,-1600 # 639c0 <__PRETTY_FUNCTION__.1+0x444>
   14ab0:	59458593          	addi	a1,a1,1428 # 63594 <__PRETTY_FUNCTION__.1+0x18>
   14ab4:	00a12023          	sw	a0,0(sp)
   14ab8:	00000513          	li	a0,0
   14abc:	298110ef          	jal	ra,25d54 <__fxprintf>
   14ac0:	b7c1a503          	lw	a0,-1156(gp) # 81ef4 <_IO_stderr>
   14ac4:	670110ef          	jal	ra,26134 <_IO_fflush>
   14ac8:	ef0fb0ef          	jal	ra,101b8 <abort>
   14acc:	000638b7          	lui	a7,0x63
   14ad0:	59088693          	addi	a3,a7,1424 # 63590 <__PRETTY_FUNCTION__.1+0x14>
   14ad4:	fb5ff06f          	j	14a88 <_int_memalign+0x1dc>

00014ad8 <memalign_check>:
   14ad8:	fe010113          	addi	sp,sp,-32
   14adc:	00912a23          	sw	s1,20(sp)
   14ae0:	00112e23          	sw	ra,28(sp)
   14ae4:	00812c23          	sw	s0,24(sp)
   14ae8:	01212823          	sw	s2,16(sp)
   14aec:	01312623          	sw	s3,12(sp)
   14af0:	01000793          	li	a5,16
   14af4:	00058493          	mv	s1,a1
   14af8:	0aa7fe63          	bgeu	a5,a0,14bb4 <memalign_check+0xdc>
   14afc:	800007b7          	lui	a5,0x80000
   14b00:	00050413          	mv	s0,a0
   14b04:	0ea7ee63          	bltu	a5,a0,14c00 <memalign_check+0x128>
   14b08:	fef00793          	li	a5,-17
   14b0c:	40a787b3          	sub	a5,a5,a0
   14b10:	12b7e263          	bltu	a5,a1,14c34 <memalign_check+0x15c>
   14b14:	fff50793          	addi	a5,a0,-1
   14b18:	00a7f7b3          	and	a5,a5,a0
   14b1c:	00078c63          	beqz	a5,14b34 <memalign_check+0x5c>
   14b20:	02000793          	li	a5,32
   14b24:	14a7f263          	bgeu	a5,a0,14c68 <memalign_check+0x190>
   14b28:	00179793          	slli	a5,a5,0x1
   14b2c:	fe87eee3          	bltu	a5,s0,14b28 <memalign_check+0x50>
   14b30:	00078413          	mv	s0,a5
   14b34:	00081937          	lui	s2,0x81
   14b38:	00090913          	mv	s2,s2
   14b3c:	00100713          	li	a4,1
   14b40:	04090693          	addi	a3,s2,64 # 81040 <main_arena>
   14b44:	1006a7af          	lr.w	a5,(a3)
   14b48:	00079663          	bnez	a5,14b54 <memalign_check+0x7c>
   14b4c:	1ce6a62f          	sc.w.aq	a2,a4,(a3)
   14b50:	fe061ae3          	bnez	a2,14b44 <memalign_check+0x6c>
   14b54:	00081537          	lui	a0,0x81
   14b58:	04050993          	addi	s3,a0,64 # 81040 <main_arena>
   14b5c:	08079c63          	bnez	a5,14bf4 <memalign_check+0x11c>
   14b60:	d78fc0ef          	jal	ra,110d8 <top_check>
   14b64:	00148613          	addi	a2,s1,1
   14b68:	00040593          	mv	a1,s0
   14b6c:	00098513          	mv	a0,s3
   14b70:	d3dff0ef          	jal	ra,148ac <_int_memalign>
   14b74:	00050793          	mv	a5,a0
   14b78:	00000713          	li	a4,0
   14b7c:	04090693          	addi	a3,s2,64
   14b80:	0f50000f          	fence	iorw,ow
   14b84:	08e6a72f          	amoswap.w	a4,a4,(a3)
   14b88:	00100693          	li	a3,1
   14b8c:	04e6c663          	blt	a3,a4,14bd8 <memalign_check+0x100>
   14b90:	01812403          	lw	s0,24(sp)
   14b94:	01c12083          	lw	ra,28(sp)
   14b98:	01012903          	lw	s2,16(sp)
   14b9c:	00c12983          	lw	s3,12(sp)
   14ba0:	00048593          	mv	a1,s1
   14ba4:	01412483          	lw	s1,20(sp)
   14ba8:	00078513          	mv	a0,a5
   14bac:	02010113          	addi	sp,sp,32
   14bb0:	964fc06f          	j	10d14 <mem2mem_check>
   14bb4:	01812403          	lw	s0,24(sp)
   14bb8:	01c12083          	lw	ra,28(sp)
   14bbc:	01012903          	lw	s2,16(sp)
   14bc0:	00c12983          	lw	s3,12(sp)
   14bc4:	00048513          	mv	a0,s1
   14bc8:	01412483          	lw	s1,20(sp)
   14bcc:	00000593          	li	a1,0
   14bd0:	02010113          	addi	sp,sp,32
   14bd4:	bfdff06f          	j	147d0 <malloc_check>
   14bd8:	06200893          	li	a7,98
   14bdc:	00098513          	mv	a0,s3
   14be0:	08100593          	li	a1,129
   14be4:	00100613          	li	a2,1
   14be8:	00000693          	li	a3,0
   14bec:	00000073          	ecall
   14bf0:	fa1ff06f          	j	14b90 <memalign_check+0xb8>
   14bf4:	04050513          	addi	a0,a0,64
   14bf8:	528030ef          	jal	ra,18120 <__lll_lock_wait_private>
   14bfc:	f65ff06f          	j	14b60 <memalign_check+0x88>
   14c00:	0006d797          	auipc	a5,0x6d
   14c04:	2207a783          	lw	a5,544(a5) # 81e20 <_GLOBAL_OFFSET_TABLE_+0x30>
   14c08:	01c12083          	lw	ra,28(sp)
   14c0c:	01812403          	lw	s0,24(sp)
   14c10:	004787b3          	add	a5,a5,tp
   14c14:	01600713          	li	a4,22
   14c18:	00e7a023          	sw	a4,0(a5)
   14c1c:	01412483          	lw	s1,20(sp)
   14c20:	01012903          	lw	s2,16(sp)
   14c24:	00c12983          	lw	s3,12(sp)
   14c28:	00000513          	li	a0,0
   14c2c:	02010113          	addi	sp,sp,32
   14c30:	00008067          	ret
   14c34:	0006d797          	auipc	a5,0x6d
   14c38:	1ec7a783          	lw	a5,492(a5) # 81e20 <_GLOBAL_OFFSET_TABLE_+0x30>
   14c3c:	01c12083          	lw	ra,28(sp)
   14c40:	01812403          	lw	s0,24(sp)
   14c44:	004787b3          	add	a5,a5,tp
   14c48:	00c00713          	li	a4,12
   14c4c:	00e7a023          	sw	a4,0(a5)
   14c50:	01412483          	lw	s1,20(sp)
   14c54:	01012903          	lw	s2,16(sp)
   14c58:	00c12983          	lw	s3,12(sp)
   14c5c:	00000513          	li	a0,0
   14c60:	02010113          	addi	sp,sp,32
   14c64:	00008067          	ret
   14c68:	02000413          	li	s0,32
   14c6c:	ec9ff06f          	j	14b34 <memalign_check+0x5c>

00014c70 <_int_realloc>:
   14c70:	0045a783          	lw	a5,4(a1)
   14c74:	fc010113          	addi	sp,sp,-64
   14c78:	02112e23          	sw	ra,60(sp)
   14c7c:	02812c23          	sw	s0,56(sp)
   14c80:	02912a23          	sw	s1,52(sp)
   14c84:	03212823          	sw	s2,48(sp)
   14c88:	03312623          	sw	s3,44(sp)
   14c8c:	03412423          	sw	s4,40(sp)
   14c90:	03512223          	sw	s5,36(sp)
   14c94:	00800813          	li	a6,8
   14c98:	24f87c63          	bgeu	a6,a5,14ef0 <_int_realloc+0x280>
   14c9c:	00060413          	mv	s0,a2
   14ca0:	45452603          	lw	a2,1108(a0)
   14ca4:	00050913          	mv	s2,a0
   14ca8:	24c47463          	bgeu	s0,a2,14ef0 <_int_realloc+0x280>
   14cac:	0027fa13          	andi	s4,a5,2
   14cb0:	0c0a1863          	bnez	s4,14d80 <_int_realloc+0x110>
   14cb4:	008589b3          	add	s3,a1,s0
   14cb8:	00058493          	mv	s1,a1
   14cbc:	0049a583          	lw	a1,4(s3)
   14cc0:	ff85f713          	andi	a4,a1,-8
   14cc4:	22b87063          	bgeu	a6,a1,14ee4 <_int_realloc+0x274>
   14cc8:	20c77e63          	bgeu	a4,a2,14ee4 <_int_realloc+0x274>
   14ccc:	10d47c63          	bgeu	s0,a3,14de4 <_int_realloc+0x174>
   14cd0:	03852603          	lw	a2,56(a0)
   14cd4:	1d360463          	beq	a2,s3,14e9c <_int_realloc+0x22c>
   14cd8:	00e987b3          	add	a5,s3,a4
   14cdc:	0047a783          	lw	a5,4(a5)
   14ce0:	0017f793          	andi	a5,a5,1
   14ce4:	00079663          	bnez	a5,14cf0 <_int_realloc+0x80>
   14ce8:	00e40733          	add	a4,s0,a4
   14cec:	0cd77e63          	bgeu	a4,a3,14dc8 <_int_realloc+0x158>
   14cf0:	ff168593          	addi	a1,a3,-15
   14cf4:	00090513          	mv	a0,s2
   14cf8:	00d12e23          	sw	a3,28(sp)
   14cfc:	ca9fe0ef          	jal	ra,139a4 <_int_malloc>
   14d00:	00050a93          	mv	s5,a0
   14d04:	10050e63          	beqz	a0,14e20 <_int_realloc+0x1b0>
   14d08:	ff850793          	addi	a5,a0,-8
   14d0c:	1ef99863          	bne	s3,a5,14efc <_int_realloc+0x28c>
   14d10:	ffc52783          	lw	a5,-4(a0)
   14d14:	01c12683          	lw	a3,28(sp)
   14d18:	ff87f793          	andi	a5,a5,-8
   14d1c:	00f40433          	add	s0,s0,a5
   14d20:	20d47463          	bgeu	s0,a3,14f28 <_int_realloc+0x2b8>
   14d24:	b141a603          	lw	a2,-1260(gp) # 81e8c <__progname>
   14d28:	00064783          	lbu	a5,0(a2)
   14d2c:	1e079863          	bnez	a5,14f1c <_int_realloc+0x2ac>
   14d30:	000676b7          	lui	a3,0x67
   14d34:	a9c68693          	addi	a3,a3,-1380 # 66a9c <expected2.3+0x8>
   14d38:	000638b7          	lui	a7,0x63
   14d3c:	00064837          	lui	a6,0x64
   14d40:	000017b7          	lui	a5,0x1
   14d44:	00064737          	lui	a4,0x64
   14d48:	000635b7          	lui	a1,0x63
   14d4c:	00064537          	lui	a0,0x64
   14d50:	59088893          	addi	a7,a7,1424 # 63590 <__PRETTY_FUNCTION__.1+0x14>
   14d54:	5f480813          	addi	a6,a6,1524 # 645f4 <__PRETTY_FUNCTION__.11>
   14d58:	21b78793          	addi	a5,a5,539 # 121b <catch_hook+0x11ef>
   14d5c:	9c070713          	addi	a4,a4,-1600 # 639c0 <__PRETTY_FUNCTION__.1+0x444>
   14d60:	59458593          	addi	a1,a1,1428 # 63594 <__PRETTY_FUNCTION__.1+0x18>
   14d64:	19c50513          	addi	a0,a0,412 # 6419c <__PRETTY_FUNCTION__.1+0xc20>
   14d68:	00a12023          	sw	a0,0(sp)
   14d6c:	00000513          	li	a0,0
   14d70:	7e5100ef          	jal	ra,25d54 <__fxprintf>
   14d74:	b7c1a503          	lw	a0,-1156(gp) # 81ef4 <_IO_stderr>
   14d78:	3bc110ef          	jal	ra,26134 <_IO_fflush>
   14d7c:	c3cfb0ef          	jal	ra,101b8 <abort>
   14d80:	b141a603          	lw	a2,-1260(gp) # 81e8c <__progname>
   14d84:	00064783          	lbu	a5,0(a2)
   14d88:	0c079063          	bnez	a5,14e48 <_int_realloc+0x1d8>
   14d8c:	000676b7          	lui	a3,0x67
   14d90:	a9c68693          	addi	a3,a3,-1380 # 66a9c <expected2.3+0x8>
   14d94:	000638b7          	lui	a7,0x63
   14d98:	00064837          	lui	a6,0x64
   14d9c:	000017b7          	lui	a5,0x1
   14da0:	00064737          	lui	a4,0x64
   14da4:	000635b7          	lui	a1,0x63
   14da8:	00064537          	lui	a0,0x64
   14dac:	59088893          	addi	a7,a7,1424 # 63590 <__PRETTY_FUNCTION__.1+0x14>
   14db0:	5f480813          	addi	a6,a6,1524 # 645f4 <__PRETTY_FUNCTION__.11>
   14db4:	1d678793          	addi	a5,a5,470 # 11d6 <catch_hook+0x11aa>
   14db8:	9c070713          	addi	a4,a4,-1600 # 639c0 <__PRETTY_FUNCTION__.1+0x444>
   14dbc:	59458593          	addi	a1,a1,1428 # 63594 <__PRETTY_FUNCTION__.1+0x18>
   14dc0:	16050513          	addi	a0,a0,352 # 64160 <__PRETTY_FUNCTION__.1+0xbe4>
   14dc4:	fa5ff06f          	j	14d68 <_int_realloc+0xf8>
   14dc8:	00098513          	mv	a0,s3
   14dcc:	00d12e23          	sw	a3,28(sp)
   14dd0:	00070413          	mv	s0,a4
   14dd4:	b31fc0ef          	jal	ra,11904 <unlink_chunk.constprop.0>
   14dd8:	0044a783          	lw	a5,4(s1)
   14ddc:	01c12683          	lw	a3,28(sp)
   14de0:	008489b3          	add	s3,s1,s0
   14de4:	40d40733          	sub	a4,s0,a3
   14de8:	00f00613          	li	a2,15
   14dec:	0077f793          	andi	a5,a5,7
   14df0:	06e66263          	bltu	a2,a4,14e54 <_int_realloc+0x1e4>
   14df4:	00081737          	lui	a4,0x81
   14df8:	04070713          	addi	a4,a4,64 # 81040 <main_arena>
   14dfc:	00e90463          	beq	s2,a4,14e04 <_int_realloc+0x194>
   14e00:	00400a13          	li	s4,4
   14e04:	00f46433          	or	s0,s0,a5
   14e08:	01446433          	or	s0,s0,s4
   14e0c:	0084a223          	sw	s0,4(s1)
   14e10:	0049a783          	lw	a5,4(s3)
   14e14:	0017e793          	ori	a5,a5,1
   14e18:	00f9a223          	sw	a5,4(s3)
   14e1c:	00848a93          	addi	s5,s1,8
   14e20:	03c12083          	lw	ra,60(sp)
   14e24:	03812403          	lw	s0,56(sp)
   14e28:	03412483          	lw	s1,52(sp)
   14e2c:	03012903          	lw	s2,48(sp)
   14e30:	02c12983          	lw	s3,44(sp)
   14e34:	02812a03          	lw	s4,40(sp)
   14e38:	000a8513          	mv	a0,s5
   14e3c:	02412a83          	lw	s5,36(sp)
   14e40:	04010113          	addi	sp,sp,64
   14e44:	00008067          	ret
   14e48:	000638b7          	lui	a7,0x63
   14e4c:	59088693          	addi	a3,a7,1424 # 63590 <__PRETTY_FUNCTION__.1+0x14>
   14e50:	f49ff06f          	j	14d98 <_int_realloc+0x128>
   14e54:	00081637          	lui	a2,0x81
   14e58:	04060613          	addi	a2,a2,64 # 81040 <main_arena>
   14e5c:	00d485b3          	add	a1,s1,a3
   14e60:	00c90663          	beq	s2,a2,14e6c <_int_realloc+0x1fc>
   14e64:	00476713          	ori	a4,a4,4
   14e68:	00400a13          	li	s4,4
   14e6c:	00d7e7b3          	or	a5,a5,a3
   14e70:	0147e7b3          	or	a5,a5,s4
   14e74:	00f4a223          	sw	a5,4(s1)
   14e78:	00176713          	ori	a4,a4,1
   14e7c:	00e5a223          	sw	a4,4(a1)
   14e80:	0049a783          	lw	a5,4(s3)
   14e84:	00100613          	li	a2,1
   14e88:	00090513          	mv	a0,s2
   14e8c:	0017e793          	ori	a5,a5,1
   14e90:	00f9a223          	sw	a5,4(s3)
   14e94:	879fd0ef          	jal	ra,1270c <_int_free>
   14e98:	f85ff06f          	j	14e1c <_int_realloc+0x1ac>
   14e9c:	00e40633          	add	a2,s0,a4
   14ea0:	01068713          	addi	a4,a3,16
   14ea4:	e4e666e3          	bltu	a2,a4,14cf0 <_int_realloc+0x80>
   14ea8:	000815b7          	lui	a1,0x81
   14eac:	04058593          	addi	a1,a1,64 # 81040 <main_arena>
   14eb0:	0077f713          	andi	a4,a5,7
   14eb4:	00b50463          	beq	a0,a1,14ebc <_int_realloc+0x24c>
   14eb8:	00400a13          	li	s4,4
   14ebc:	00d76733          	or	a4,a4,a3
   14ec0:	01476733          	or	a4,a4,s4
   14ec4:	00d487b3          	add	a5,s1,a3
   14ec8:	00e4a223          	sw	a4,4(s1)
   14ecc:	40d606b3          	sub	a3,a2,a3
   14ed0:	02f92c23          	sw	a5,56(s2)
   14ed4:	0016e693          	ori	a3,a3,1
   14ed8:	00d7a223          	sw	a3,4(a5)
   14edc:	00848a93          	addi	s5,s1,8
   14ee0:	f41ff06f          	j	14e20 <_int_realloc+0x1b0>
   14ee4:	00064537          	lui	a0,0x64
   14ee8:	17c50513          	addi	a0,a0,380 # 6417c <__PRETTY_FUNCTION__.1+0xc00>
   14eec:	9d0fc0ef          	jal	ra,110bc <malloc_printerr>
   14ef0:	00064537          	lui	a0,0x64
   14ef4:	14450513          	addi	a0,a0,324 # 64144 <__PRETTY_FUNCTION__.1+0xbc8>
   14ef8:	9c4fc0ef          	jal	ra,110bc <malloc_printerr>
   14efc:	ffc40613          	addi	a2,s0,-4
   14f00:	00848593          	addi	a1,s1,8
   14f04:	2c8020ef          	jal	ra,171cc <memcpy>
   14f08:	00100613          	li	a2,1
   14f0c:	00048593          	mv	a1,s1
   14f10:	00090513          	mv	a0,s2
   14f14:	ff8fd0ef          	jal	ra,1270c <_int_free>
   14f18:	f09ff06f          	j	14e20 <_int_realloc+0x1b0>
   14f1c:	000638b7          	lui	a7,0x63
   14f20:	59088693          	addi	a3,a7,1424 # 63590 <__PRETTY_FUNCTION__.1+0x14>
   14f24:	e19ff06f          	j	14d3c <_int_realloc+0xcc>
   14f28:	0044a783          	lw	a5,4(s1)
   14f2c:	008489b3          	add	s3,s1,s0
   14f30:	eb5ff06f          	j	14de4 <_int_realloc+0x174>

00014f34 <realloc_check>:
   14f34:	fff00793          	li	a5,-1
   14f38:	24f58a63          	beq	a1,a5,1518c <realloc_check+0x258>
   14f3c:	fd010113          	addi	sp,sp,-48
   14f40:	01312e23          	sw	s3,28(sp)
   14f44:	01412c23          	sw	s4,24(sp)
   14f48:	02112623          	sw	ra,44(sp)
   14f4c:	02812423          	sw	s0,40(sp)
   14f50:	02912223          	sw	s1,36(sp)
   14f54:	03212023          	sw	s2,32(sp)
   14f58:	01512a23          	sw	s5,20(sp)
   14f5c:	01612823          	sw	s6,16(sp)
   14f60:	00058993          	mv	s3,a1
   14f64:	00050a13          	mv	s4,a0
   14f68:	1a050a63          	beqz	a0,1511c <realloc_check+0x1e8>
   14f6c:	1e058063          	beqz	a1,1514c <realloc_check+0x218>
   14f70:	00081437          	lui	s0,0x81
   14f74:	00040413          	mv	s0,s0
   14f78:	00100713          	li	a4,1
   14f7c:	04040693          	addi	a3,s0,64 # 81040 <main_arena>
   14f80:	1006a7af          	lr.w	a5,(a3)
   14f84:	00079663          	bnez	a5,14f90 <realloc_check+0x5c>
   14f88:	1ce6a62f          	sc.w.aq	a2,a4,(a3)
   14f8c:	fe061ae3          	bnez	a2,14f80 <realloc_check+0x4c>
   14f90:	1c079463          	bnez	a5,15158 <realloc_check+0x224>
   14f94:	00c10593          	addi	a1,sp,12
   14f98:	000a0513          	mv	a0,s4
   14f9c:	e01fb0ef          	jal	ra,10d9c <mem2chunk_check>
   14fa0:	00050493          	mv	s1,a0
   14fa4:	00000793          	li	a5,0
   14fa8:	04040713          	addi	a4,s0,64
   14fac:	0f50000f          	fence	iorw,ow
   14fb0:	08f727af          	amoswap.w	a5,a5,(a4)
   14fb4:	00100713          	li	a4,1
   14fb8:	14f74463          	blt	a4,a5,15100 <realloc_check+0x1cc>
   14fbc:	1e048663          	beqz	s1,151a8 <realloc_check+0x274>
   14fc0:	01498693          	addi	a3,s3,20
   14fc4:	00f00793          	li	a5,15
   14fc8:	08d7f263          	bgeu	a5,a3,1504c <realloc_check+0x118>
   14fcc:	ff06f913          	andi	s2,a3,-16
   14fd0:	00198b13          	addi	s6,s3,1
   14fd4:	07696c63          	bltu	s2,s6,1504c <realloc_check+0x118>
   14fd8:	fdf00793          	li	a5,-33
   14fdc:	0727e863          	bltu	a5,s2,1504c <realloc_check+0x118>
   14fe0:	0044aa83          	lw	s5,4(s1)
   14fe4:	00100713          	li	a4,1
   14fe8:	04040693          	addi	a3,s0,64
   14fec:	1006a7af          	lr.w	a5,(a3)
   14ff0:	00079663          	bnez	a5,14ffc <realloc_check+0xc8>
   14ff4:	1ce6a62f          	sc.w.aq	a2,a4,(a3)
   14ff8:	fe061ae3          	bnez	a2,14fec <realloc_check+0xb8>
   14ffc:	18079263          	bnez	a5,15180 <realloc_check+0x24c>
   15000:	0044a783          	lw	a5,4(s1)
   15004:	ff8afa93          	andi	s5,s5,-8
   15008:	0027f793          	andi	a5,a5,2
   1500c:	08078063          	beqz	a5,1508c <realloc_check+0x158>
   15010:	00090593          	mv	a1,s2
   15014:	00048513          	mv	a0,s1
   15018:	a14fd0ef          	jal	ra,1222c <mremap_chunk>
   1501c:	0a050463          	beqz	a0,150c4 <realloc_check+0x190>
   15020:	00850a13          	addi	s4,a0,8
   15024:	00000793          	li	a5,0
   15028:	04040713          	addi	a4,s0,64
   1502c:	0f50000f          	fence	iorw,ow
   15030:	08f727af          	amoswap.w	a5,a5,(a4)
   15034:	00100713          	li	a4,1
   15038:	12f74663          	blt	a4,a5,15164 <realloc_check+0x230>
   1503c:	00098593          	mv	a1,s3
   15040:	000a0513          	mv	a0,s4
   15044:	cd1fb0ef          	jal	ra,10d14 <mem2mem_check>
   15048:	01c0006f          	j	15064 <realloc_check+0x130>
   1504c:	0006d797          	auipc	a5,0x6d
   15050:	dd47a783          	lw	a5,-556(a5) # 81e20 <_GLOBAL_OFFSET_TABLE_+0x30>
   15054:	00c00713          	li	a4,12
   15058:	00000513          	li	a0,0
   1505c:	004787b3          	add	a5,a5,tp
   15060:	00e7a023          	sw	a4,0(a5)
   15064:	02c12083          	lw	ra,44(sp)
   15068:	02812403          	lw	s0,40(sp)
   1506c:	02412483          	lw	s1,36(sp)
   15070:	02012903          	lw	s2,32(sp)
   15074:	01c12983          	lw	s3,28(sp)
   15078:	01812a03          	lw	s4,24(sp)
   1507c:	01412a83          	lw	s5,20(sp)
   15080:	01012b03          	lw	s6,16(sp)
   15084:	03010113          	addi	sp,sp,48
   15088:	00008067          	ret
   1508c:	84cfc0ef          	jal	ra,110d8 <top_check>
   15090:	00090693          	mv	a3,s2
   15094:	000a8613          	mv	a2,s5
   15098:	00048593          	mv	a1,s1
   1509c:	04040513          	addi	a0,s0,64
   150a0:	bd1ff0ef          	jal	ra,14c70 <_int_realloc>
   150a4:	00050a13          	mv	s4,a0
   150a8:	f6051ee3          	bnez	a0,15024 <realloc_check+0xf0>
   150ac:	00c12703          	lw	a4,12(sp)
   150b0:	00000a13          	li	s4,0
   150b4:	00074783          	lbu	a5,0(a4)
   150b8:	fff7c793          	not	a5,a5
   150bc:	00f70023          	sb	a5,0(a4)
   150c0:	f65ff06f          	j	15024 <realloc_check+0xf0>
   150c4:	ffca8793          	addi	a5,s5,-4
   150c8:	f527fee3          	bgeu	a5,s2,15024 <realloc_check+0xf0>
   150cc:	80cfc0ef          	jal	ra,110d8 <top_check>
   150d0:	000b0593          	mv	a1,s6
   150d4:	04040513          	addi	a0,s0,64
   150d8:	8cdfe0ef          	jal	ra,139a4 <_int_malloc>
   150dc:	00050913          	mv	s2,a0
   150e0:	fc0506e3          	beqz	a0,150ac <realloc_check+0x178>
   150e4:	000a0593          	mv	a1,s4
   150e8:	ff8a8613          	addi	a2,s5,-8
